(dp0
S'buildDestination'
p1
S''
p2
sS'saveDestination'
p3
V/Users/Cabot_Cove/Projects/Cabot-Code/twine/samples/Variable_Sharing.tws
p4
sS'metadata'
p5
(dp6
sS'target'
p7
S'responsive'
p8
sS'storyPanel'
p9
(dp10
S'widgets'
p11
(lp12
(dp13
S'selected'
p14
I00
sS'pos'
p15
(lp16
I8
aI0
asS'passage'
p17
(itiddlywiki
Tiddler
p18
(dp20
S'text'
p21
V/% You have to initialize the variable in Twine. Set to zero, you can assign the value in your javascript. %/\u000a<<set $ReaderTime = 0>> \u000a\u000a/% Below you are calling your macros "ReaderTimeMacros" and sending the instance of the $ReaderTime variable through. It still has a value of zero. %/\u000a\u000aThe clock reads <<ReaderTimeMacros $ReaderTime>>. \u000a\u000aYou need to move fast.\u000a\u000aThere's a door on the [[left|Left Door]].\u000a\u000a/% This is the image found on https://www.flickr.com/photos/internetarchivebookimages -- a great source for rights-free images. %/\u000a\u000a[img[door]]\u000a\u000a<p class="credit">Photo: https://www.flickr.com/photos/internetarchivebookimages/14595751749 </p>
p22
sS'title'
p23
VStart
p24
sS'modified'
p25
ctime
struct_time
p26
((I2015
I4
I22
I12
I43
I21
I2
I112
I1
tp27
(dp28
tp29
Rp30
sS'tags'
p31
(lp32
sS'created'
p33
g26
((I2015
I3
I13
I14
I45
I30
I4
I72
I1
tp34
(dp35
tp36
Rp37
sbsa(dp38
g14
I00
sg15
(lp39
F341.0
aF683.0
asg17
(itiddlywiki
Tiddler
p40
(dp41
g21
V.passage {\u000a\u000afont-size: 18px;\u000aline-height: 20px;\u000a\u000a}\u000a\u000a/* http://twinery.org/wiki/stylesheet */\u000a
p42
sg23
Vstylesheet
p43
sg25
g26
((I2015
I4
I13
I23
I42
I9
I0
I103
I1
tp44
(dp45
tp46
Rp47
sg31
(lp48
Vstylesheet
p49
asg33
g26
((I2015
I3
I13
I17
I47
I7
I4
I72
I1
tp50
(dp51
tp52
Rp53
sbsa(dp54
g14
I00
sg15
(lp55
F192.0
aF143.0
asg17
(itiddlywiki
Tiddler
p56
(dp57
g21
S'jquery:off\nhash:off\nbookmark:on\nmodernizr:off\nundo:on\nobfuscate:off\nexitprompt:off\nblankcss:off\n'
p58
sg23
VStorySettings
p59
sg25
g26
((I2015
I4
I22
I12
I38
I47
I2
I112
I1
tp60
(dp61
tp62
Rp63
sg31
(lp64
sg33
g26
((I2015
I3
I13
I18
I3
I19
I4
I72
I1
tp65
(dp66
tp67
Rp68
sbsa(dp69
g14
I01
sg15
(lp70
F30.0
aF294.0
asg17
(itiddlywiki
Tiddler
p71
(dp72
g21
VGood Times with Variables
p73
sg23
VStoryTitle
p74
sg25
g26
((I2015
I4
I22
I12
I45
I14
I2
I112
I1
tp75
(dp76
tp77
Rp78
sg31
(lp79
sg33
g26
((I2015
I3
I13
I19
I35
I17
I4
I72
I1
tp80
(dp81
tp82
Rp83
sbsa(dp84
g14
I00
sg15
(lp85
F20.0
aF136.0
asg17
(itiddlywiki
Tiddler
p86
(dp87
g21
V/* Name your macros -- 'ReaderTimeMacros' */\u000a\u000amacros['ReaderTimeMacros'] = {\u000a\u000a/* Macros handler includes a params array for sending values/variables through */\u000a\u000a  handler: function(place, macroName, params, parser) {\u000a\u000a/* This grabs the first parameter value [0] and strips away the $ Twine uses so it can work in Javascript */\u000a\u000avar ReaderTime = params[0].replace("$", "");\u000a\u000a/* Twine stores variables in the state.history array. Here you are adding the 'ReaderTime' varaible to the state.history array and sending the value through. */\u000a\u000astate.history[0].variables[ReaderTime] = this.m;\u000a\u000a/* Console log just to verify the value is passing through. You can remove. */\u000a\u000aconsole.log(ReaderTime);\u000a\u000a/* So Twine is built on the Wikifier engine, which makes this all a little confusing. In order to display your variable value in the story, you need to leverage this Wikifer function -- place is to set within the div, this.m is the global variable you've set the time value to below. */\u000a\u000a    new Wikifier(place, this.m);\u000a  },\u000a  \u000a  init: function() {\u000a    \u000a/* Function to format the time into a reader friendly format. */\u000a\u000a\u000a    function formatTime(h, m) {\u000a\u000a/* If minutes are single digits (under 10), add a zero beforehand. */\u000a      \u000aif (m < 10) {\u000a        m = "0" + m;\u000a      }\u000a/* Set the hour to am/pm format. */\u000a      \u000a      if (h > 12) {\u000a/* If hour is above 12, subtract 12 to get the readable time. No 19 o'clock. */\u000a        h = h - 12;\u000a\u000a/* If hour is above 12, add a space and 'pm'. */\u000a        m = m + ' pm';\u000a      } else if (h === 12){\u000a\u000a/* If hour is  equal to 12, no need to subtract 12, just add a space and 'pm'. */\u000a        m = m + ' pm';\u000a\u000a} else {\u000a\u000a/* If hour is  less than 12, just add a space and 'am'. */\u000a\u000a        m = m + ' am';\u000a   }\u000a\u000a/* Set your time variable as hour plus ':' and the minutes. */\u000a\u000a      var time = h + ':' + m;\u000a      return time;\u000a    }\u000a    \u000a/* First, you have to get the full date/time. */\u000a    var now = new Date();\u000a\u000a/* Now, you can get the time specifically. */\u000avar time = now.getTime();\u000a\u000a/* From the time, you can get the hours. */\u000a    var Hour = now.getHours();\u000a\u000a/* And the minutes. */\u000a    var Minutes = now.getMinutes();\u000a\u000a/* Use your formatTime function to format the time to am/pm. */\u000a    var Time = formatTime(Hour, Minutes);\u000a    \u000a/* Set this.m equal to t your time reformatted as a string so Twine can recognize it.  */\u000athis.m = Time.toString();\u000a  }\u000a};
p88
sg23
VReader Time
p89
sg25
g26
((I2015
I4
I22
I12
I35
I54
I2
I112
I1
tp90
(dp91
tp92
Rp93
sg31
(lp94
Vscript
p95
asg33
g26
((I2015
I3
I25
I11
I25
I16
I2
I84
I1
tp96
(dp97
tp98
Rp99
sbsa(dp100
g14
I00
sg15
(lp101
F199.0
aF6.0
asg17
(itiddlywiki
Tiddler
p102
(dp103
g21
V/% You can display the $ReaderTime variable value using the print macros (included in Twine). %/\u000a\u000aYou step out onto a large crumbling balcony. There's a large grandfather clock that reads <<print $ReaderTime>>.\u000a\u000aYou are having a good time.\u000a
p104
sg23
VLeft Door
p105
sg25
g26
((I2015
I4
I22
I12
I36
I16
I2
I112
I1
tp106
(dp107
tp108
Rp109
sg31
(lp110
sg33
g26
((I2015
I4
I13
I12
I35
I26
I0
I103
I1
tp111
(dp112
tp113
Rp114
sbsa(dp115
g14
I00
sg15
(lp116
F840.0
aF10.0
asg17
(itiddlywiki
Tiddler
p117
(dp118
g21
V<<if $painting is 1>>\u000aYou head toward the trees. Your legs start to feel weak when you finally start to see familiar sights. Syed can't be much further.\u000a\u000aYou're smiling. You did it. You really did it. \u000a\u000aYou spot the van and see Syed asleep at the wheel inside.\u000a\u000aYou pound on the door and Syed wakes up startled. He starts the van, hits the gas, and runs over your foot. \u000a\u000aYou fall to the ground biting your lip so you don't scream from the pain. Syed jumps out of the car, panicked.\u000a\u000aHe kneels beside you, "I am so sorry! I accidentally put the van in reverse!"\u000a\u000aYou release your grip on your lip long enought to whisper "The painting."\u000a\u000aSyed stands up and walks toward the front wheel. He kneels down and picks up half the remaining canvas.\u000a\u000aYou curl into a tight ball and laugh for what feels like hours. \u000a\u000a<<else>>\u000a\u000aYou head toward the trees. You're running for what feels like miles when you finally start to see familiar sights. Syed can't be much further.\u000a\u000aYou're smiling. You did it. You really did it. \u000a\u000aYou spot the van and see Syed asleep at the wheel inside.\u000a\u000aYou imagine his face when he sees you holding the painting, the painting you've been plotting to steal for months.   \u000a\u000aYou stop. \u000a\u000aThere is no painting. You fucking forgot to grab the painting.\u000a\u000aYou pound on the van. Syed wakes up and unlocks the passenger door. The engine revs and you take off. \u000a\u000aMiles pass in silence. Finally, Syed gets up the courage to ask "So, you got the painting?"\u000a\u000aYou take a deep breath, "No Syed, I didn't get the fucking painting," you answer.\u000a\u000aA few more miles pass.\u000a\u000a"Why-why not?" he stammers.\u000a\u000a"Because it was fucking ugly Syed."\u000a\u000a<<endif>>
p119
sg23
Vrun right
p120
sg25
g26
((I2015
I4
I13
I17
I42
I5
I0
I103
I1
tp121
(dp122
tp123
Rp124
sg31
(lp125
sg33
g26
((I2015
I4
I13
I15
I30
I46
I0
I103
I1
tp126
(dp127
tp128
Rp129
sbsa(dp130
g14
I00
sg15
(lp131
F1020.0
aF332.0
asg17
(itiddlywiki
Tiddler
p132
(dp133
g21
V<<if $bandage is 0>>\u000a\u000aYou head away from the highway and find a tall tree with strong branches. You climb to the top and stash the painting.\u000a\u000aThe dogs are getting louder. You can see one a few feet away, sniffing at the trail of blood you left behind. You're feeling dizzy. You can't feel your arm anymore. \u000a\u000aThere's no way you can outrun them.  \u000a\u000aYou use your last bit of energy to take out your cellphone and text Syed. \u000a\u000a---------\u000aDuck you. \u000a---------\u000a\u000a<<else>>\u000a\u000aYou're walking along the road as car after car whizzes by. You're beginning to wonder if this was the best idea when you see Syed's van on the opposite side of the road. You flag him down and the van comes to a screeching halt. \u000a\u000aYou jump in and Syed presses the gas. \u000a\u000a<<endif>>
p134
sg23
Vhitchhike
p135
sg25
g26
((I2015
I4
I13
I16
I38
I3
I0
I103
I1
tp136
(dp137
tp138
Rp139
sg31
(lp140
sg33
g26
((I2015
I4
I13
I16
I3
I36
I0
I103
I1
tp141
(dp142
tp143
Rp144
sbsa(dp145
g14
I00
sg15
(lp146
F1092.0
aF506.0
asg17
(itiddlywiki
Tiddler
p147
(dp148
g21
VYou run a few feet and find a tree with large green leaves. You take some mud to patch the wound and warp a leaf around your arm. The bleeding seems to stop.\u000a\u000a<<set $bandage = 1>>\u000a\u000aYou manage to run for what feels like miles when you finally see familiar signs. You are on the right track.\u000a\u000aYou start to hear barking dogs in the distance. You run faster. \u000a\u000aYou finally see the van in the distance. Syed is asleep at the wheel. \u000a\u000aYou remember the doors and the guard's gun. You start to wonder why you ever agreed to split the profit. \u000a\u000aYou pound on the passenger door and Syed wakes up. \u000a\u000aHe unlocks the door and you jump in. He presses the gas and you're off. \u000a\u000aYou're both silent for miles, until it finally feels like the coast is clear.\u000a\u000aYou start laughing maniacally. "WE DID IT!" you shout and tell Syed about all the problems along the way.\u000a\u000a
p149
sg23
Vpause and bandage
p150
sg25
g26
((I2015
I4
I13
I16
I56
I10
I0
I103
I1
tp151
(dp152
tp153
Rp154
sg31
(lp155
sg33
g26
((I2015
I4
I13
I16
I22
I46
I0
I103
I1
tp156
(dp157
tp158
Rp159
sbsa(dp160
g14
I00
sg15
(lp161
F542.0
aF657.0
asg17
(itiddlywiki
Tiddler
p162
(dp163
g21
Vmacros['Countdown'] = {\u000a  handler: function(place, macroName, params, parser) {\u000avar CounterTime = params[0].replace("$", ""); \u000aconsole.log(state.history[1].variables[CounterTime]);\u000a },\u000a  \u000a  init: function() {\u000a    \u000a  }\u000a};
p164
sg23
VCountdown
p165
sg25
g26
((I2015
I4
I14
I21
I57
I17
I1
I104
I1
tp166
(dp167
tp168
Rp169
sg31
(lp170
Vscript
p171
asg33
g26
((I2015
I4
I14
I21
I5
I15
I1
I104
I1
tp172
(dp173
tp174
Rp175
sbsa(dp176
g14
I00
sg15
(lp177
F179.0
aF290.0
asg17
(itiddlywiki
Tiddler
p178
(dp179
g21
Vdata:image/jpg;base64,/9j/4AAQSkZJRgABAQEASABIAAD//gAcY21wMy4xMC4zLjFMcTMgMHg5N2JiODQyMgD/2wBDAAgFBgcGBQgHBgcICAgJDBMMDAsLDBgREg4THBkdHRwZGxofIywlHyEqIRobJjUnKi4vMTIxHiU2OjYwOiwxMTD/2wBDAQgICAwKDBcMDBcwIBsgMDAwMDAwMDAwMDAwMDAwMDAwMDAwMDAwMDAwMDAwMDAwMDAwMDAwMDAwMDAwMDAwMDD/wAARCAKAAg4DAREAAhEBAxEB/8QAGwAAAgMBAQEAAAAAAAAAAAAAAwQBAgUGAAf/xABeEAACAQIEAgUDDQoKBwcEAgMBAgMEEQAFEiETMQYUIiNBMlFhFSQzQmJjcYGRocHR0zRDUnODk6KjsdIWU3J0gpKys8LDJURUZITh8AcmNZTU4uM2VaS0xPEXReT/xAAYAQEBAQEBAAAAAAAAAAAAAAAAAQIDBP/EACcRAQEAAgICAgIDAQEBAQEAAAABAhEhMRJBMlEDYRNCgSKhcfAz/9oADAMBAAIRAxEAPwDi8vyqi9SKWvzAVBSoRppao1TxrETIVCkBTzIvf0481urqR1k43UaMhVyozDR6RmM2/wCqw5+jj7WibJ4yP9KumxO2ZSgf3WGr9Jx9iCXKgArZzKfD/wATm3/VYc/R/v8A6Jx8mXterEzW32zSb7LE1fr/AMXU+/8A15ZcpkYJHm9QXZgoHqnNuSbC3dYas51/4vH3/wCnczoYcjkjizLMKimaZSVHqrKb2Njyj8+JjfLqf+Fmvf8A6QE+T2DHNZifE+qM/wBni6/Scff/AKgVOSXv6puTbcnM6j7PDV+jc+//AF4S5BqJ9U3LXuT6oT3P6vDV+jc+3hLkY2GZSL6PVKYD+7w5+jj7EM+TlSRm8tr7A5pNe/5vF1fo3Pv/ANMRZllyFFTP50A8Bmcv2WJ436OPv/1d81oZIypz2Vged8yl+zwmP6N/v/0rJPktzfNnuRv/AKTmH+Xi6v0hYpkJJYV4B8T6pzfZYc/SrpHkSjUuZKpUX/8AFJQT+rw1fpN/tdTkoe4zZgbXB9Vpfs8NX6X/AEQS5TawzqZTfmc3f7PDV+j/AFYyZSSD6tzk87+rDfZ4mr9J/qEnytW1LnlQrDxGcG/93hq/R/opnytmBGfVCtyuc4PL83hq/S7/AG8Z8ulkBmz+oLDxGbgX+SPDX6T/AF7Xlqi38IKkC3ZtnP8A8eH+H+vCfLg4J6QVVxuD6sDb9Xhr9Gv2lZMvZ1L9I6q43Deq4NtvxeGv0b/aC+WagX6QVfO5/wBMi/8AYw/w/wBXVsvsDH0iqlBNi3qwPg37GL/h/q0cmXqikdIasKvZBGcrtbw8jE/w/wBeMuX7ovSKqCatW2cLz/qYSfo/14y5ekelekNWqnmDnK7/AKGGv0v+rCqowoC9JK3kQb5wm/LbyMJP0b/aqVFH4dI6wA8v9MJt+hhZ+j/V46ijUHT0jqxvz9WU/cw1+k/1K1dIpJHSWtGof/d03H9TD/D/AFVqulsAektbttf1YT9zF/w/0BpaIEk9IatmIPPOE/cw1+j/AFQPl2yyZ7WOB5Ns4WwP9TDX6N/s5SQ5fmcpphmdXMxRnf8A0xcgAbkLoF7DwviX60en0Lo1Umq6P5ZUEW100bb7e1AxwynLtLw1B2l82IqoBBuQDvucQea5GzG/jbFEWuApBYcje2EHzrpBkTZfnMks9VWdUrJkEDRTtGkb33hksdlYbK/geeO+OUscspZWa+TQTqyTSZgrF2HEaZy/lABdN/LXyGTmbhhcY1LPbNn00M1yypHQnIPVCjrdNKXapSAsJI0Kmxa2/O1+eM42W1qxn0+Q5fPLBwKitkjnY8Jkqmu6MLqee7JzZdtS7jkcat16Z1+xMkylpOkOW1OTtUTQQ1AaocF2hTSCDZ28oE8rX574mVmlk5fUgb9q9hbHndmF02WSLozVz0VRU001OBMHhezEahqHxgnGsO2M65GtWKOV/wDvXmgVjsDmECkeg732x3/xi39lCsJNm6S5hpJ2JzaDD/E3+wHp6dwBJ0hrioPjmsJH7cNfo3+w+rUQ39X64X3uM2h54f4n+mI2gVSB0lzAG1v/ABeEj9mH+Lv9r9YCkA9KcwIHL/SsH1Yf4b/ZFsvy3iMxzmqcsDcjM4CScXf6OPtSPLKBX7Oc1IUctOZwX/bhv9HH2KKSkUFVz6uCtsQMygPy74n+H+iU9MkLNwOkWYKCLXXMqc/tbDf6J/8ARLSqnDj6SZg0bb2NfTW/tYn+Lv8AYKxSxyvLFn2YiRl0ljXUx28R5eLr9Jv9gSZRTSyM82aVzStY6jWUxB/TxZx6NPoHQSMQ9GqePiyTBWezs6vftHxUkfIcef8AJeXXHrboFILb3G2wJxhqR8nlNv8As2F2PYp7rZjcEVJx6Zxm5Wf8spny2rywZflKtUVUyoztLHwxAqXLMT4G3Mi43PoA3LZd1jizhpUvRzL6aDL5K2sarjn9ukmgCJluGjUAs2+xva2Jc70vjPoRst6NjUKmAww9XieI96jciWOttt2sBfz4kyyXU+mdP0dkycUuZGMzwHS8tIzgyptcgHk9gbmw82NTO3hnx9snMqiiGYU7ZVKGgDqyxiIppNx4nnjXPjdpNb4dd/2jvHJ0vyeOdY2QBAyN4gyb7ebbHL8NvjXT8mtsCWGk1WHVEQHYBoTb9uOktc+Cc1LC57LwJpFvLjAPm5Li7RVaaLcCSEWNgQ6X/Zhs0qKaFiLyR3O9+IgPx7YbNLGmjTUBJAPSZI7j5sPI0ItPCTq105Y39vHb9mHlV0s1NBI51PACRzDx/FyGL5VNFmpoBMUdkY+BEkenF2mosaKESAPNERaxtLHYYm6uky0sbWEk8J7NrrLF9eJumv0hKeKV049REy2se9jFrfH5sWZGv0sKGFFBkmh0ncATQn/Fh5U0K9NFpUvJSlVFlCPCT5/wsTZoJqGEoSklOO1veSIH+1huigpIgx0SU+m9t5YSR+li7osaOnCsYpUAJGzSwkj9PDZpeSjp1AVHibs9rVJDz9HbxPI0oKKBSGSSMkC5DSwgH9PDyNLxUcGpSssPiGGuIW32++YvkmkpQU8kuiIRFy+nTqiNvg7eHkuhTli00hSV6XVfySyufj0sbfHieZqvLk2qB5kjiaMGzOkkRAvyuNdx8eHkaob0lOwOrq3EttZ4uf5zF8jSJMvgkjZnmiD2C2Vovi++YnkPR0USJdurOLXszxbeb75i7RZKODyHEGq1wQ0Q+fiYbVD0VOT23g2FhpeLn6e8xPISKKnC3fq9udi8RF/zmL5IqtFT92zNDa/4cW/w95ieSvLSROhT1sEJ2IMWr+8xfJBoaaiWwPAbz34J/bJibXTQiWhQ+RRjYqbPThrEWNjqPnxm1ZO3a/8AZfm2uilyKpdGly72JlNxLETsR8F/nGOH5cdXbthluadrYjyOWOTbwBBJvfzjFErve24v8GAQz/M/UjKpqtYWnZLKqA21MTYD5bY1jjupctOVl6Rr0h6KZxxqMUlZQmMSxudSizqQfgBB+THTx8a53LcEyxRU9JKMOja4qqdpDIe8DLHZdY8bBuy3ipHiMMrwY9uyDduwX0A2xy57de3zrNKZcrmzCOnjRII3qVjYAlAdJkRCPakaiUYe6Xxx3xrje3dZLTpSZLQwRgKEp0ULpt7UY45W26dZNQ1cNcrf5eWMqxumcqQ9FMzJF2eEoB5yxCj5zjeE52xl0+U12XUy1EpCU+osfFTc/nfP6MerbgR9To1dxaMfHHt+tw8kCOVpqAOkC3MGPn6e8w8l091BCpNkDfDGP8zFlREtCgXX3V/NeMfNxMXYGKJZGuwRSByVo7H9PDaiGgjJ3KKAthpaL7TE8h5qBA2mURg22CtGR/eYnkmnmyuO9ww7Q27Mfzd5+3DyXSy5SuogRobb76R/mYeRpeoyM0wV6iLho266lWxHn9kw8jVVTJmmiEiU0hiHOVIbgD02fF8jSYKFI7K9MjgMSSVN/mfE3VfVP+zcAdFKZUUKNcmwvbyj5yf248v5O9u+HUdJrIcKG8OV8c2nyysAH/Zy6rYWhO55gdaOPRPm5ZfBHQ+GpyfJYsxgSnd6okMskLMXDELGFcencjxBxc75XSYf88sfPKmkioqmCWSvSqlKtHxKUw+Ni19W6kX7NrCwtjUlqW/R2B9clPVvR11JSQq8AqGp209WaPSrEjxDb+PlYFvtfo7WUz10CB+vtAGSN44NoZSCbxK3g1iN7DUbgb4mU40Y3bHz/LxR9I6Zkp3pUq2jnWGS2qK7WKn4CD82NzK3DSWayb3/AGiMF6e5ddQ4CxbEkX7w4x+L4Vr8ncKzyOLgzStvsS8ot+txYyXR2INzKfwSJH+2xoQok7Z1yN4nvH+2wF1JbdzL5NtpHBHp9lwEFncq2qQg22Ej/a4iJ1NoVkkkIB3Uu+363A0ku7KSJHsd9Ot/tcAIJwwBCXRRuVV3sN9/vuKGTq4h4DzIrC1zJJe/j99xAPXM+ySVAYix7ch/zMVdrIspD9uovYixMlvj7eIPBZdaKWn4jDmWk5fDrwTUeBnYgxrU6uRIeXf9LFEMZWC6mnEni2qX68QWeOdSdXHJ5Bg0tv24os+plTs1QcjYhpbH5+VsBULUF7g1KnmLGX68QSBPcaus6b3JvLgGIkbWvGFQBfn3v7wwNGo1paOnqa7MJJko6YhCELLJUSsARCLsbWFixHntjPd010w5+m+cBlGWGLLaVNkgpo1AUekkb43Pxz7Z8r6Gy7pW1fKqZ/RRViA361AgiqYwNyQy+VbzHzeOJcNLMttmtpJknZEmlqAqrKJYi4E0b7o4VBtyII8CPTiSrYQaGZdQVakBha5Wfb9HFZDeCYqdIqQPOeN4fFiiTBOzHQKgLfx431YCVjkVQoaoU2vYia/9nARwptmUVJJHPTL9WGxIgnY3tUgkb3Wb6sDUeEE4kU2qfSCJuXyYD3ClXSQKgHna031YgPGkhQFjVLfYANMB+0YhBIXno81o8xglmimpmCsXGoNEWAZSWcmwBJ5YXWtVqcV9bilimRJYWDo41K68mGPNZp3XvzK74ggDne9/PijA6eFT0ZmU7lpYbeg8Rcbw7Yz6fKayvqqbpLmUMMvDjrLxSoFB1rcMNvPcY9Fm5txl07aSviyTNI66SNJI45JUVeJ27OBYBvbICSR4i5Xwxyst6b3pqP0ulYng5Wlvas1UN/HwU4x/H+2vNi108mYCrq5o1glZKkgIdR0aALN+ElwN7XVgDyONya4ZbFF01phHCK6kqKSBkCioeRJAWCgjsoSQT8GM5YbvDXk3sozahzeB5ctmaRI34bEqVs1gbbj04xcddty7IdOY2bo3UMp0iNo5WYX7Kq4J8PAb7A8sXC8pl0+ez00+2syqvMtolIPpB4W98eiOJNYJwgcxzcuZjk+yxUXaGVlssMtrXB4cnMfksQoTRSaboJzcXtok+yxRSSGVo9IEwFrXKS/Z4bAxDKbK3GYgfgSj/Bi0WEMmvZZ9hzKy7foYkE8GZmNlmABvbhy/Z4tBoYHZQBTvy5uk32eIvA9PT6eO885pKalQGpmVDqGryY0Vl8s+fzYm/SyMqTpSlO2jI8roKRFHss0Ynmf0lm+jFmH2nkJS9JoKuThZ1lNLMGGk1FHEIZlv47bN8BGGWGuSXZ3NKKGjdVLRyLJGJ4JkSNUljOwOkRsdQOxHx4zjdlmnd9AAy9GIdQsTJIR2bW7R8LD9gxw/J27YfF0kJ8+23PHNp8uzC/8A/j6oUi/YY383rs49E+blfiToWpJej8CwalrhTxSOyK9wquUuzeSNyOQ8Masu2ZeCNbmAra/KZI8uq5KSibSyyKC0jA62Um1vA/Da+NYzjRvdGXplUPTV8klPLMZAUifWQiq1x2hyvY7AW5WxP4+Zynm0MgWaGly6janqKSZZoro0YKvpJdnuDv2Rvt487YmempSHS8SpnWTQ1UsL1CKpcxRcJQDKSo0kXBtzww141Mvkd/7QgW6d0DC4BEIv/TOH4vhTP5EGAu1lIB8LAW+SDGolCEbMLEMAb80O/wCoxUXMbhrBTbTz0H7DGeVSsAIA4ZU23JBt/cYqPRRF3tYgjxKm39xgJRBdSqPce5Nj+owV4QtcXja5Pma39zgirQFZyjKQ3hdT4fkMDhcwLxGEqOT5wo+L7xgqssKahxYyCF2AQfYYC0kcJdUdI47C4sii5sPeMDhXgKsSkIgRrmxCk/3GKcI6uOyXSPT/ACEv/c4g9JCii+mPQzWHYS/9zgi/CjCE8OMrcndI77bfxOA8sKaCeFEU8brHf+5wHlijBICI3iLIhJ/U4KtBFAGvojIJ8UT7DBDtNBAXjAhQrqGrulIG481PibULNqVqvIMtjYkBnr6p1G15FcAX+Afswl52ap2DMkyHIcr9SKOGWKrQNPLwtbM4B1LYnzgA+Yb4lm7zV2y80gik6VUE9BCInqEWqMIQBY2ueQ8AbA2P4WNy8M1r1IVctpFfg8KGSvgTXptwlcFBdgRsbW2xmNXpmukRc6o6Q8xa0O1/yeKiipBoIK01vQsP2WCIMULMoZKfVbkFht/dYKq8VOWPFWIeK2EViPzWAlIImdFIgXUNWwh2/VYDxihBQukem17gQg2/NYItohQWeOnIPaBAhvb81gKpDCjDVHT2PjphJH6rAN06i4skRQ+KxxE/3JxFjVyXLFzPM6eneNWjuZ5AFUdhOQ9jQjU9h8RxnK6jWM3X0enhWnpooY1skaBAOdgBYY4V1EIFxcePjiKixHwEXtbAc5/2iyCPozJIxYd9FsPPqB3+THT8fbGfT5FI3WOkkronEUytcC4tzHP4seqzhxnbqOnMinL5jGlyap91WyEi1yAfJa4sy8ibMOeOeHa5Xhx/qtVCMBNAIFt1B8LebHTxjPk7XKyJOjtOHAdmFQ4VBY34Q1MD+EB5SeKm45Y52ct74ZeSZfm+b5vBQ1slfSUTkmN+r3WwUldyLfLfFyymMJN8V9P6LZEuQ0k8a1TVTTy8VmaNUsbAWsNuQx588rk6Y46ak+k2RlVlcFdJ5HGce2r0+Ryw06iZF6q8KVEscIcxX4Yay+XvtuBbwGPTHDRLRTkkHqg8wBg2+bFEutMqkP1ZSDbbgb/NgAyLTsq7Uw239g3+bFRS1PsCtKLjbaC/9nAQy06ubCkA8QeAf8OKIC0x3Jp1t6YN/wBHCiR1c2vwL+nq/wBWIG6daWRkVxS2Ygc6f0ejEEZ+j/waooqZCzVldUSyBRYkodIHxKMMe1vEA6M5fRw5bVZjmdLHUFJOBFHJsisBqJb4vPjWeW7wScPT02XVCUeaZXEKduOI5IADYNYsCN9iLbj4DiS3RpodI2SPKqeR1MfBr54lMYN1jZQxAF+VycZw7XLp23/Z/KJOi1I2qR76+09yT2j6T+3HD8nydcPi6BD27AG1ueOdafMsyU/wFqETmVcC5tyqzj0Y/NyvxZPRTO5aegbKhHE8kj9wKiTTCdRAYN59rkXNtz443njLds45WTTWzqiq47ww11TNMk0VSgN34aqWClkHaAN7agNxYkAnGcclsrOky2deDDQFkhFW1Y5KOo1agEU6gBsLjc+2xuZzaeG2nTZdl2TrVQZxTzCB6Z2M0RukQ1WKaufFJA39AAFsY3culk05mJq3OukVKyQySs8qcEsxYiOPw1HnYDf046XjFibtb/Tx1H/aFQE7i0J3O3lHGPxfCt/k+RGp4BBLvA3iLvGf2zHFiUuGguWZ4LW8HjPh+MxraJVodNneBhpv5UR/zMNghlhYjiSQMCPwor7cvvmIK6oVQXkpmvc2DxX9H33AQHiAAvARvtqi+1wBOJHw1BkhKXvYNFt+twNILxAmxg3HItF9rgPK8YVissG4sBqi+2wEJJDcqHivbxMf22AsTGVDKYnNiLFk+2wFlkhLKqyIxPK7If8APwRKyR6gBKtybEBktYfl8FVMsVvZFBBtYOtv7/BFuIpdbul77jWtrfn8FWVlF+1EpIvbWv2+A8WQWBkUNfs9tft8AUMEjRmdF1LcdpbH9fgLxTwae08ak87mP6Z8BoUTRVCJSGWl1mdqikLOpjLupWWBipOnWLld/HzjGWtloo5cqeSOHMpcoLvrkpquJbBiLXGoaTfzqd/MMW2VJFsry9pJZ5sueSsqpGvLmM6kRQAbly5ABtzCqOdt9sLkSfZfNKmnZoqahaTqdJGIoGIJLrfUzntqQXbf4AMJEtWjZpUuHYJexJLbfLPioGraSVR2I8RrNh/+RgILk+TK5Ftruf8A1GCrCRlB0u5FrW1N9vgbUBbbS5Y2t5Tfb4IuGcSKqF2FtyXbbz/6xgIAchmXiMQDazNtb8vgPKzWXS0hI3I1Pb+/wDEYHiZBtcgv9dRiK6XoCkZauk6yUneqaIRKbsscWmw3J2IJJ39tzxz/ACN4O3juCDf4xjk6PAWuVAB9IwVFyWAFgPTgjl/+0/SnRCpYn74ii3nJ2x0/F8mM+nzbohk/qj1/MJ5SBl8HFAC31yMTYN5/EnHf8mWuHPCb5dr1KnzHPYqWuh48b1EyyRzG7XEZIDAeKi2lhzUqPDHK3U4bklrXTodkBqJo5cqoyi6TEQGvYjcHfz/txj+SteEYOY0dPQxzUVOXSkE0nDAPZF4lbTq5iQC+k8iLqcbnPLFmndZe9PNQUjU+p6fhI8Rbc2t2efjbHLK3bpBiTq7I573xGmN0yzCfLspU0a2qKqVaaOQ7iNn9tb9npxrCcsZ3UcCXqKSkSng44VRYENKo+G3EFvH5cd9e3LZUSVFydVRc+OqX7bF2DSmoVdnnY87ky7/rsTYXczMTZpvg1yD/ADsVAlMoNw09wLkBpPtsBMnHbSVaoJt+FL9rigWifWG9cCw27Uv2mLsEjEwYseODbxMx/wAzEoeokmNiGqgW5+zn4/ZcZtDHVZJlkoqcHrCzeqNCjjSJWtaaLcmxO5Fz44k45anLNio5uLUjJpo0eUAVNFVRBiCOV0bxHnFx43HLGtyr0aghqXq4Y6w08tRGSYaGljCDURuxA5X8Wa23IYzbIMnpjWU8klPlsEsUvVNbTSAEK8zG7EHzDljWE1yzlfp9G/7PwkfRSjCujqNQDA3B3Pjjh+Tt2w+MdFHfVcEAW5Y5tPlWYu0nQiZrMTIZRpAvcdbvj0T5OV6JTUmaZjkUFJIaIqArqXqEUpbkAPAW8Ma8pLti476M5JHnuVyKVny2YDSG49QrEaTdQG52B3tfEyuNaksNyJVNkwyyaLLZoAtiZszLEnWXvcLzvjP/ADvhedcszN4s6zeVfVDMsuaBXD8BaiybWF+W5sLXO+Ny4ycMWWiZjSVFTXUtUKqhKw1KmOGB3LhC4Fh2bbD04nlNcrq7G/7SDUQ9Lo6mnikLxwxlWCFhsW25c8Pxa8dL+T5BmoZlua+JAw3Bnnv80eKlxVQ3cCHMqdfhmqb/ANjDaarwAMhKZjTrt7aeo/cw3DVWU3ZUjzGAEDe89TYn+pths0hpVGjRmNPrsQ2qonsf0MNw1VCV7GjNKMNbe9TP9nhuGnka3Z9UaQG/PrM2/wCrw2LO6oQTmVHxB/vUw29Pd4bNVVn7VzmlGrWsAKmbf9XhsRqJRgcypABuR1ma5/V4bR7UAul8xo1Ntj1mXf8AV4q6WMqlhxMxpBYWB6zLv5vveJsU4i6QvqhRAc7ipk+zw2aq0TLYI1fQqp8putSX/u8NmlrqQwTMaLTcAE1Lj/Kxdmlw4AsMwy8g7k9bk+ywHhIhUXzChLW/2yTbz/evgxDSdaWBGZULWFt6yTY/msNi8Toun1/l7MDvesk2/VYbBDURSWSaty6WNtmieukKMPSOHhQaHNJ44zHSZ9BRxKLLEKkzqPg4kdwPjxDZOvqKqtIFV0hoqrSbrxqo6R/QCab/AA3xqWHNKtRxF9TZnlROrc9YF2+HusW5RJDCRwxA2rcrUnbasUDz/wAVibi6EDRgWNblQJWxBrFJ/usTZoI8IMWNdlisd/u5fssNmngIzCyGuyxTpuLVyW8PesNmkkRqq3rcrFhy6/HufzWKaVKppXVVZaDa4PX4tx+aw3BLGPQAKrKrKOYrod/1WGwQrGqx6qjK1B8n19Bv4fxWJsN0zRXstXlaL5+vRn+zDiWro50LY0XTyenikjlgrqdpyY3LqH2vZiBfe99vHEz1cdrjxdPpQcAkBRyvjg7PK5NwVUC/hgIkfSAVAJPLzYClRDDUxGKphjmibcq6hh8hw37hYwM0p8o6P5FVUlFTwUrVndpEguXkbYbc9ufotjc3buscScMjKxwukVE50cLrciKzt201xsVTVyZCblD6beGN2cM48Xh29xpJMYCi97i2ONl23txFfLHJmczU5QxvO6K4GpNDKiAMvihZTZxyZfTjtOI53t0/RuWI9H6FYJYp0SFYRKh7LMosbfJ445Wcuk6aEThBpkINvE74zVZfSqg9Uuj1ZEFDOE40Vx7dO0u3xW+PGsLyzl0+epHHUQRTLDRRpKgdQ1TRxsQR4gx3Hx49G2CfBjRtElTlanlbr1Mf2RYrOlnSIGzVOUqtrgddp/ssNxYrIkRG9TlIJ5Xrqf7LBAe6ACtVZUB5xW0/2WEsR5uCyqBPlW5t9202/wCqxdxVtFPouZcq5Wuayl3+Lh4hp4QRsy3lypRuSVq6Uf5eA9CsIJvNlIAvY9apT/l4bi6g6SQmMI7ZYVY6uzmNPHv4EFUBBHnGJx7EvmVa6BK5+jmaxp5AramF3UfjAQT8Yw1DktVVeZSUj0tDN0cyqBh21o6qNS/oLXvbFkiW2s/L8oFPMZZ67Ly6gaGizKJSp8TuDi3L0kj6p0PbXkMV6nrNmYa+OJr7n2wAv8mPNn2749NpLk3FhtvvjDT5zkFNnc2QL1KOgameV1jaWWRWvxSTfR4ebljvlZK5SZa4eNJngRSI6JtQ1dmtqQALA/heZhhvG+zV+lOrZ7xZVanpAFU7tWVAvYv7r3sn5MN4n/X0sKfOwzI0VHcMEBFXUWYllX8Lw1c/Ri7xTlULnAhEpipiGUnSKuo2GgOPbebE3DkcUuZLHIJJaQeVsKmpN7axby/ez8uHCyUnms+Y5VJFrjp5BJq06aqoHk2vsX5bjfFxksS2xk1HSiuhdUqIE3Fhpq5yB8PbxuYM3IL+FtSWu9OwsOzaqn3/AE8X+M8lj0sqS7Gene5XYirmNx/Ww/jTyq38MKoaVansFFxasn/exP4zySOl1QW3p2tba1bNv+lh/GeTzdLqgKrGmmCDyW63NYnzc8XwXyeHS+fUoMExW179clP04eB5IfpnUFdK08mnlfrko+nD+M8knpjUBT60ksdr9dmJHz4fxp5Kfwwq1Grq0jBhYE1k314fxnksemFUVFqWQso39ezbebxw/j/Z5JbphUOE9bSFrf7bN9eH8f7PJ4dL6grYwOWPkqK2W3n8+J/GeTw6ZTrwzwZG8fu2Y/Ti/wAZclh01qBzp5Dv/ts314fxz7PJc9N6jhhhTShmOw69Nvh/H+zySnTOcvtTSAjlqr5R4Yfx6PJaPprM4LNBIthcD1Ql354eB5U5kue5nnVQ8FHSSIyBS5kzGUBdRsL/ABkfLjOWMnay2+mvqztYwRFCUKarjNJtuzfzebGeF1fp4Q55r0NFEdJK7ZpKLbkH2vnU/JhtdX6E4WdMN1plvyvmcxNuz46fdr8uFsNUpQ1+Y1mYVtHCsWuiOmVmzGXSSL7Ds7nsnw8MWxJ7UfNakC6usi32K1dSf8vDRtAzasCklX223qqj7LF0bUOb1ZRlZWbf/ap/h/isNJt71VnUghdZtYnrk21/yWGjarZxOVG+o+Nq2Tb9VhpE+rE5C7BvMDXMdP6nDS7qTmsscagaGB/34kj9Vho2hc5k1qx0GxsQa02H6nDRsSDpFLFdVBYE3sMwcW+SLE8TyCnzurOcUma04pFnp4pISslVLKHDefseHoxdcaXdl2dk6aZ5JGyr6jxllsCrSgqfjXnjPhFudAbpn0gC3jqMrJI8khyf7GL4Yp5UZOmmfDcvkzLptpJkG/n2TDwh502nTvMlK8Sjyrc3Hfyi/n+94n8cWZ1zkNRwqmokV4opZ5HlMqTHiI5N1KMU5DkRyIO+NScaS0WWuR6R4kipVYqLLxSYgb3ZQunZSe0AD2TuCL4aNvR5gJiIaueSSFYXjjVqln0MzX1br2iBtZrjbDUTyETMwkuoSRqQt0Cy2WJ+TBQV2jYc05A7ixw0ux6bNqaCthraeGnhniqOIQJ9PFjKkFWstjufKtfz4lx2sumwOnslwHoKK/n64f3MY/jXzVk6dTMJFjoqMMVKgmqYgG1hto3tizDXKXLc0wsqzNqPLIKWSOkllhGkyJIFuLkjnETt8ON2cpsWTOZSdkQA/g1RX9kGGjhDZvUatYKvtuOtvc/qcNK82b1Ftl3JtvWP9jhqpwEc1nv2VAIFvut/scNJwqM1n1W0hudx1xrf3OLo4eXNJAoAVWHIjrfL9Rho3EjNncCwUAjcGs/+HE1ThaLMpGtpVGa1vuq/+RhpYYV6ueORoog4jTWR1q22w8YAOZ8+G1Gho82kJLUAiZRd0lrYQV5+9eZTy82Ia/Q8OXZq2po6GB1B0n17Hz/M+kYnliuv0GaqemqZaaoorMlMtSBHVIwIZgvPhjBL+nR9EKo12T8XhtERK6lWfWefnsMcs5qumN4bKpdrliLC3w4w04LoXXTJklPEuXT1ISWUakmjUEmS42Zgbg+jxx2/Jjy5zLhehz2nr6iSipKKrkmRNJVZ4WYAKFPtt/JGJfx6nZMt3Wmg072sMqrgxLC5eEixL7eX74fkxnx/a7/SqVEkbqxyquexv7LAPFD+H50+c4vj+zf6AeepETIMor7tHwweNBt2Ct/L+A/Fh4/s3+ima5/FQzmKqyusS6mTQ80PJmY38rl2iMamHPaeeuNM7pVVVE3qbO+WT0MdPIRrkZGLFktyUmxst743+OatZyu3NokdVG6iwbSp1lSLARqxI32Jvy+cY626YAmoWpwyo8jKzWLGMKQRz5t8xw8k0FFCC5ZCjdncOQBf+viyihMMTEAsXvZ1MTbW/pYGloqmGFyVkR77aGjZgL+HlYIqHhAGlzd2J0lGA+LtYDyvFcd4bgHYBr283lYoqJYjq0TafgVv2asB53gLu3EFl3AZW7Vh8OAkvAIwqvcaQd1azW237XnxBEfA7CySCI89XDbbn6cUWVonjOqQDYnUFe59HlYgojUzOFMigH2+lvj8cUEklpzpRZVGkaQ4Rrm39LEEcanC9mXURcmyv9eAstTTqNph2Te9nt8mrFEiWnBJ4+sGzFQJNvjviCONTBNPWAxv5NpPrwHUdBKyCj6Q1iNIoNRFFouGPksrG+xtsPHHP8nMbxrsXmowixpXQyDQyjSrH72y8tPnIxx1XTYwqqbiljUdoyk7xPbSXY89PmbDk3FBVUqFUaqiVmAIAR/NF7nzo3zYapbHJ5HLqzzpDLC7JqqtUZsVYXE1j5wdxjrl1HPHutXMKqGohE9TrRwHmkca2DKiRnlrUau38eMyLeHM1OfZSkjLHPPcHf1u322Omqm4Gmf0DqeHLMm1haFwTv8AjsPGptIz6h0HRNKG3YkxSC/67DxNvDPqF+U7xkADeOUX/XYeKbWhz2kPk1UyEj8Cb7bDxV5ekFHrKmqkRTvcrNv+tw8V2mHP6JraamVGO5JWYA/HxcXxTaDntAxutTKj2BJKzb/rsNG3m6RUhuTUONICDTFMAB+exNG0RZ7Rlxarm1k7dmYWPw8bDRt4Z5RoQOtPqtcnTPbn6JcPGm3mz2j1dqrmA5X0z/a4aNpn6QURRdFTNqVbE6Z9zc8jxeVrYeNNqnPqUN26qUkW3An5fncPGm0LntIAuqqnZRtcJP8Aa4vjTaz55Qs6lqyVyARsk5v+txPGmw/VumK9qsnCMb7Cfb9bi6ptdM+oQe1VykW56ai/wey4njU296vUQt6+mIHhpqPtcNLsR89olAUVkoI3uI6i5/XYeNPIMZ7Q76aqRR4nhzbn89h402qc+obXWonsPHhy7/rsPGptHq9RjsrUTDx9jl+2xfGrtYZ9RE3FTKCATdopRf8AXYnjU29FnVE4sKiUN+Kk+3w8asqDntCQpjqplbe54ctz+uw8abe9XqIuLVU4vv7HNv8ArsNVdiUubUUzhVq3TskgusyhrflsNG00+f0K6QayRDY3PDnNx+exLjU3y6WMyQZS7SONTwNMxV3Ia8YddmY8hjFm+HTemlP0gyusdZY61GjkQAlo3Bt2wdtPusZ8aeSqZ9lMMDpNmFOsmtHUMrgbBL+HnU4z408ox566kr+kDdRqkql9TDGzKCO0sgI5jHSSpubrpehR00NRH5Oif9qqccs+28Om+rBWsxHLx5Yw2+PZHn9FlUDU09NKZpZJGMilbdpiNhpJFgPPj05YXJx8tJn6RQHLcuoFy6GKWlKeuFB1WjbtEbe2sb7nnbF/iv2XM6vTnLpHN6GpiUC5CcI/4MY/hq/yT2v/AAzywMF6vVpvytEOf5PF/ip5xRemWWkEimqi1tlPC3/V4fxXo84EelFAYs1EsEsgzSJY4yQCVCqUsSByB3AAxfC74TyKVebx1+WwUAieJ6N4xxdiJCFK3tYEfGTjcw1dp5bmmaGJgYMuk8EEDfe8O37MWxk+FDMQ409pkL6b/fJLj08h8HgRjKg8JiqlWdOyDZWZrggHb4iLjmPnxUBZ3IWVxIJFNkmZdRG1rHUdxbGhcsJLKSI5VBbTctceJXStiPnHjiSlUddWld1IHPSx+jFRZSGGkkhr+VZjz8+2GxEihCUa9rc9LW3+LASISVbWHuQNPPf5v24bHniGjU7MSosLBtufowHizyIGqHcmxUXJN7cvmwFRES4uzsCLAgMLfNgLSLpI2YeFrNf9mKiqK4Vbl7HYgA/VgqwjJjIJa9txpa5H9XAEZGZBpGkKLbAm/wCjiCESQi5DqCLHsk6v0MBaWN7KQpQ25hWF/wBDCoeyWtpsu6W1dVUySLohEdlUsxYhPAEenGbNzTWLQps8yWlOXT00VXDVhDLVynUeKhBv49vtEEcvhxnxrXlDg6d5UJL9YqlF9vWt7/rMZ/jq+UIQdK8shMEhp6hJ5K16h6oAXkiJYEE3udrC3LbGrhSZR7J6nrHSLNnPYD1MLnUwF9Wrw89j5zhlNRmdj5i/FySZn3Io5rG/nipsMS9McTvBklMlkMgp9QYRoSSVlNyxF9io+TGoybmUNUHrEcJJlCrZU5cZh5vMRjVXQcPA0RvNDGzGMG4VeeinJ8PdN8pxndFpnjiLhUhCMrkIqLYkLUAHl7kfJgqAImnSNoIDEZraQimw40Y83LS1sXaFFMa0+uSngdRT3vpW4PV7jw84vi2poyxgNUy9WpinGI0hF2HEkHm81vkGMrp4SQMkamCn02Um6Lt2aY+b3Tf1jgLTNAYWQU8JURMB2F2ISo9HO4B+LAEiWBKpESGHQJhYaF/joR5vMxGBougpxl2p4KZm4RbyFuTwSfN5xfDkNSrTxyukVNTxx8RyVCKbgSygeHgAB8WHK6LoIHiiBpactsd0Xn62t4eZm+U4cikgpRC7LT02to2JOgXvwpTfl5wPkxN1NQ0qUgqpYxTwaGnKhSi+Tx7ebzbfFhuhUx0iI4jpoQOAHB0jyuBEf2kn48N1dDOtJrULS0y9o3HDU27ycebzBfkGLuppQJTvPGRTwm2kgKi2H3OD4e6b5TgcKSSRRxs0aRhjG42RfGOX0fBibB2WHrel6anKiYrYIvITMAOXmFvixRRI6dqZC9NASQpvw18Upz5vdN8pxN0ekaARMphp91blGv8AvHo9yvyDDdXS8K0omC9Wg08ZdhGp21oPN6cXaQGnMJoow8NO7MoJ7C8+HCfN6T8pw2DTNGWcvDAW0m2mNBawqLeHuV+QYnKrmnpy6B4KXQZVVRpUN7JEPN5iR8eGzQCiFaRCYKdxwQ1gikg8JDvtzvf5ThsNK8cLuVhp1Gt9OmJB41AHh7lfkwqQvnswkyeZGWBl0MQFjQFTrj8QPMx+XDHta2opeJ0fXUNQagHM7/cxH0YxJy16Z9B0moqXIkpJcxrWqlhCMpVwRuLgHVblcDbFuNTyhmh6XZNHWVMcNZUwUZdWhSVZCQSDqAsTte2x8+FwvpZlEDMKbMukkNRR1jVMPUpo2BRlCkEG3a3w1ZOU26fodcRV1yrd+CT/AEBjl+R0x6dAkm9jyt8WMNvg9JGwrpJl0KY1dbuCTdnYLt8PP0Xx671Hm9n5KWhnkjq2iCPUiokZNwoIYix8wBKj0WvhLZwthXJ8gkq5y08goaaIgTzMCRGT2QCfC5B3Ow8Tvi5Z6SY7dBH0dyWFEhno5mOqPiOZTrCgPxLWPgUFiBuGFsY88m7J0xM36ONS06zUyOyNbU1y3DdhqEbbcwLb7bmx543j+Ri46DWh69SUixBY1jjWZiRpCxgAOeW51KfPzw3yaQ00bMxWJX1aSxvpvdm03A2vpte1sIgIW8D6Vka0K2IvYdw2/wAuKNaNkkmWGnl1uJ7tGb38q5t4EWb4cZaBpZNNOnEUS6o91YEjeOD5xvviFH0R6W0Ri1wTZOQ7YAJCk8lO43238+CF5IpECGYlkB1oCWIS/Jl8P+t8UpeUzBSy00c623dXVCfhW2x+DGogayVBXs0ZCsAAOKhJ2/k4cC4lqDGwajB3FlMqXJ/q4nAlpZlvroR2eaiVP3cXUFWqJtA00QQWtbipY/o4agmOSaxEdFpLDmZk3/Rw1FQss/FYrSlVUkE8SP8AdxNQUMkpAPUjsbahKh/w4vAKZ5FHZomLXtcyR25bjycEVMrqrK9G2v8Alx2/s4COLMAA1B4DfXHt+jhoXjeSxvl7sbEnS8f7mGoDIZzGeHlzGQC40vFa3xpiVV4wG6QTNUusKK0Uko1qCiqFJ3At4eGLOkHpOCauSqnJanWj4vdqXtaRrBfQQtgTyvfDYyYconj4QjnozUyrdaTid6Qd9PKwYjkCb4svAcrMqZaKmhiaUJLJwlZgCbEBr2HhckYzMjTYyyOKDMaqGJzJIHpmnJAADHV2R8Atf04l5anA1fLoySp0sQho2uPE91S4zj2ZdMYShsppliLWFKRY22sk/wA+N+2fQ6yEVS2J3l7Ra1/ZhyxVDp2ZaZOHdO6WzMR4xw4A1Y8WqTq2tUZXPbIPhUj9pxkXj2qlKuVIlFzy240P/XxY0FFdeqHhqdfV92IBv63bEgbiVnqyIwwcykkbWHfSYgpGSUU2JawGxFvIpr4gtIDpe97lH3uLeRVYKLCeHU3bfvF0n08aDAKKA1G+s94YNhbb2DFQ/NpM8pe/E4r202024s+AViGp0BG4Kg3O1r0uApKRwGDgX4LbDx7mbETQ0lhX3NwRUfF90YqlgzGnBNrGADbY+wwjAGlYvKdQ3u24Pu6k4CIUAkiG25UEqfdUwwA5x61LA2UxNa/P2J/r+fAORvw6qSSNkAExUlwCQDNJ9WIF41PCjK6U7AO5F91phiqGz9h9AvdW1Ej3NScEHiOirUpcWmAJv74uBAoFHBQIwYGNQC223Dg254gIwUGRouzpVhYgHwqcUFVS1SoQIve73Gw72LEC0QQwIUYi0XauNvYU/bgDyeysy3B1PqJAIPaqN8Atm1moKgKQO7JPhfeHFhW7TMB0djt2X6htyt9zvjHtr05Cjp4qitzETLZlh1KxW4U2F/jty+A462sSDVVFFBqlnjiC6HkMgY6gxuVsORBNgb+fCU0d6Go0WY0epdLSQVN+QvsPqxj8jUfQuiCqOv6VC3mUne++nHDN1xb6qCbPbGG3xbLaQqOuq8l9ekqu5N5GAJ8wBFz6Merbz37MoSmSZZMYVImkqkYEkqLSK29he11GJbu2L6jSyGxjmXisZWqCGjCSMyiygkupC6T46ttuWM5RZ0yT0ekzTqlVE83FqHIcG5F1LBVXbwIAtta/gMa8tTTNx9umWAVdNWF110qRTKHMbSyBQzWN9QC3sO0QSbXvjn5ct9xhUgGZ5tUKEtfLqoOASQGCKu3m5A29ON5cRhm1kiyRIEAjhVUeISG5IJ2HyAfKcdPdSlonXq0ll0kwLuGI+8P4Yo88cU8tWkrGHTK0gcNbcAEWHjhsMyVDU0sUeYkAOmjrEdyCbhTq847A5b/DjOk2a1kDiRsVVwzKVbytqmxB+MfLiLEU7BopYEjTUZNQa9tKiEMbdknc32A5nAFiiQoCquNJ03tMCPR7HhvRyuYOySwlBvfdZbf2MN1UCGE6rxvc76u+tf8AqYHArwBCSEdTp5qJrb+HkYbiKvAoU3jkJtcG037mJuKGIVuGKS3sBYCY/wCXhuC3VwSH0uPDlNc/q8NwS0NlIIk03ta0v2eG4PClVUAWGRR47S7fq8NxENAo7GiUDnylufP97xdj3VYpPJjYtz5S3t+aw3TQ8dDDIspjBiKLsGEl5P1WGxVaJXRAkEhS1ibSAk+b2LDa6pajpxJn+cFmWIU8avIzgtZRpU7Wv4+bGt9J+k0gVaGlqSo1aCyONkJVptz5gbgfH6MT2aekyqhqa9qsZiaOVn1SQvtIjXvYrzJB8172vfDy9Lr2fzII6CoSZ4x11Ae3Z01xsW3HIgHb4MTaUl0fW+bZhe9usU4AJFyO1z9NsXIh7NBqyqqLBUQ0rGwOwHDpfHEnZWDCwbKoVcHUKcqtiPwZ8a9odCE1Z4i3IkBNhckcZcVQIRehBYvYRA2sD97hwBqpJAWWcEKNdgCL/wCs4AiahVRFt0MwJvY376HAhcKq0mqQEqae4sR/s7YkDysDWAMLRrOxJFr+zSYgHAbRIFsUFrAjzpS4g9IpaB2NtOhwNht2Kk4KMh1VagbKZRvtsOPDgFH+4hpv9z7XHvAwQ3KGE8jKAVZ3PaAv7JUfVgqlOLEaFAJZQW/p0uABKPWjEcjATvz9hk+vFQxp119jfTxzttt37fVgFUGqAcyTEtzf3unGALIALmPVcBuySB/tRwJ0LEg40dlJtIosbfxlOPowCjjVSqDe/BIuPDusX0GSFFQ5cEMJW5Ab97PiCixDVGG8CgFlG/3NiBeUM0RLi3dE7C33uc4KbYaakcbWo43ZIHvh5/JggMRYwJr5BFXlv5FOPpwPY8pvHrkDBWjZtgBcaKnAE0MakCRdI4oAHL78lv2YBUvekhRgCREFG25vFF9eKsHlYlTq1mOPULCxI3qcEhXMlAy2pMl1XhsoItfyocJOStylQ/wfiuSR1AWFrc6dsY9tenPwQvD1qSrUCLiFowbk6whFtvc7/F6cbtYhjNqTiT00M8cbRVEEQF2s3kMw028x539AxIomSII83oVCkBKOpO9ri98MuY1jOXd9EBbrxXUQZEtc+5x5/wAjpg3ydB7Qv8WMRt8VjJ9TZCrBGAkv2rXGtr7+cbfLj165ee9NWtp3pugnR2VlYKsrO4QgHS2ptr/yR8npxjHLedaymsVqSN8vqZBw2nhjfTMnaYPbUQ2nkxXytJJ5X5Yt6SGp6nKrVFRNVAQy6pGjSpaPiEShe0oO7aBqOwvfGOfTS1RVQVdPNS0bcdZXELVIQ6VXbUIm5lW2AXfTc29N1fYnovAajPcykJDP1F1unknV2QV+HS3w88PyXhMZuuX0rFlUMTyNUxCeMozPyuBcD0XB+THWMl1U8E3KuRCp2PvMmNItIdUlaJiSSXIPhfh/9csAzNM0tQyzASHiWIY3UgSSbEfTiVK9ThUWoAGmN9EgTVspaCQ8sTJYM7lI8w08yG5NY/cwOH0bN9HZKuajpA9ZpRzpQCnichRIse5YXvdr4zl2uNaEVVJLE0prpVURhwoggFrxh/wPTb4sZum90YI7sx9UJ10llANPAR2TKPwfev0sOE3XlSR9IGYT+UoIFNBbcwi/ke+/NhwbqjvIkJlWtqNkLkcCDwR3PtPcEYG6MFl4wjFfOWEvDDGng37bLfyPR8+Cy0F5pBFrNdPbQG2p6f8AAjf8D3z5sE8lg0wVg2YTFgWJBp4N7cX3PvXz4Luis8w0IMwn1F9Jbq8HItEvLRtbifNgm6A81TwDMcxqSQnEt1an37syfg+i2F0bpoCqMrr6q1F1ZwPWsB8l3X8H3Hz4cHIsENVKI2ObzgNpFuqwat2jH4PvvzYi8q8OokjHEzqqKrGJdPVYLbq5PtfMmG/aau2JSRJT9Js5aSTXwTpBDKpYawu9htsb46b3pnXZiOGODIOjBkj7Uomk1E2KgkkkjkeyzbYkvK3gGlE0b02X9YLSrEs0yiXZrsxbe9tgR8QxayKIIn6PTPTn1t6oxol4wQU4RGm3mN7fHib50s6LZGI/VPM+GCL1cRKkghFu9lv4kDn8HjjVTEbMBbJalUJb1qwtcAnu6U4k7Mu2DTK/qaukO8awEm45difG0aEN+uLwDccW55fxwwUunYpwAOcIB9HdQ4Ak9lV7IWZg2+mwG9TfE2GI0VqqMRKXfigkk7eywYoVBU0xtYngXIK8rU7csSQMg2rmJF++a4K8u9lxB6AlljI1cTSu1hbyaXA2s8Z6vKbXIjbULD+LqcQH1aq5bAauKpA0DYceLAJqBJRqALdxbb8QuAZqXvNLqVtWqTw595U4qpVLToNJL8VRuPfKbEQtLZaIaiG7kixHvDfXig0i6a1mYMBxySAeXfyfVgBquqCO91OhRbT7imB3xBQghWBJtpYm38mpxV9GLsJok9pxhquLH2WED9mCE2NqJbDsmC2496T68AcGzORZhrY7b+3qDiD0KySMojAYgg/I9PgBJG70DlUOlICWIF7DhSfXgD6zx5DGFIEzElgD7eTx+LAnb1IpLJZVYDQG1Da3rYYHt7iOKWUw7qYCWBAItw5jgL8ORqstChN5Tfl4TE/RgAp2ooQq3JVQf6lOPpxVQ4U62jJN1Y3K7+TUHBAs1YrQ1HDF20MCpANiJYx9GEK6KFtWRKUsLUPK1retj9eMe2/TDzRmShrmu8m5AAUC3ZN72A2sbY0zTvSOGRM8oIUKD1hTqyuoIIB7VjcW2HP4BiYXcpewMtBTpNRIQwIo5xZrHnqxb0Tt3nRIj1+ALWkT+zjz5u2LeseXL58YafK+j2SR5jlayVCzMJJJlURxK111kG5Li9z6MejLPTlJuNqppePlsFFVGRqOAIyJ1eMW0AEHaS+wIO+Ocsl3GrzxQo8ipgG1SyFlIjKSQ7vzWxtJuBpPPzY15JqPS5ZTylkJmYsbkdXF/ajbvNvKXl5xhMjSwog+yz1CjRpIWHYi1z9852W5Ityvh5EgmV07ZdUM9FJKpayMppNQsGPZHebC9xt5sTK7WTXTnukWXw5flUBpllAaqW7SpoIvduzub+Vy9OOmGW655TUc6j6oDZhcQqNz4cKTHVhcuUnrkjIF+IDqtv3RtgpqCz1x4Z0kSGxJA5yPiUUy82EvD27ENyCLH1vJiZLDeq/Xgt1az6iSLfcownplbo8zdWpirDaQgbi21RD9J+fEybnRmNCtCbX1inAuGFvYG+rEVoxXWpIJXVx3ueYN5pgP7Xz4jIKTNpLPcMwRh4chSG/zYixaUEwyA3HYbkbfeqkfRgQca2rUHlXq1O3h367/AKWLtSzBjQxg2saa91P+7xfVhsNVK3lkjiUoTJILjcW1VQxLUqUR+OhblxUO/wCMpTvhsAMZNE4Um3AO+23rd/qxbSHFUrmBaMmxmcHUR4zzA4h7XppNMMROo3SM3uPBqTl8+Chq9o2Jb71pueRslT9WHol5ZKwVGY9Ic/golZp21kgjZVJ35fCPkx0vEZ1t02dUb1VJlVLQUVaBQgoXeAgBTHpuPTt8+OWN01lNsSDonwWVko6jUhBCmmJAty5jG/JnxbEVLUQ5HUUkdHWdaasasicRbBtYIXn+DcYzvnbWuHLdHEKZvmqNZSKuMHba4aTHTLpjEzmiA5PUnk/VmJFtiNFLiY9lYI4kmXRFwpHBYCx2HYntjaG91rdLEKeN4KDvxhgqsZvRoGAvwdiBue6h54AlQNWosuiwcCw/nOJQeJGWeJnQxXkU7Am/ewYgWItRXsRqp+drX9bnGth1rGq37IMzXNt7caXGYKI6lY1awQ27WkajtS4CZezTldBCcJtx+KqMQMKSKwAgA8fmRv7PFt82ATAK0gaP+IBJ8fYI/rwKamLa52IYEcQ3I8NVUcF9KBgKsadwZVsbcu9p98VAWINGdBRrU/PTv7Bz+fEIYaNjVtZQbyk3G/36bABi1GKPawCrcEeilGArKtqV3ABPDJBH4upOCirZq5Li54w2A8eMn1YIACopoue8AupF9zHD9eKLOy3l2Cm7WAF771OILLGTWIDsFmUaQBv3kItgAm4pTxFKngbCx37k/XgotSyCWVyCF4r2IHPtTn6MARbM0N0EbcRR6CNdOPowT2GWVaO7dg8EEWHO8LfvYC9UVlrjchQJG5La3eyn6MURGumSJSpRuwBYfzYDEA5ldY2MiaW4DHlY+xTH6cFBzsEUNWZALDV2gN/ZgPoxZ2y6RI29RQmwJo7XLAf6so+nHN0LV9MKxWjWmYRNKCwFXHvY72ufGx+XF6ZvY3SOmlzjNqTMFpBB1ePQEM8TA2NwT2vD4PDExuo1l2z6VOH0yhWRQB1KQ7MGtcN4jbGt8Mzt23Q+1q0jYGVR8ekY4ZuuDfFgAWYA8ue2Obb57k1V6m0gpZazK6RqeomCCrlaOR7S6tVrbA2x3s36c5ZPcFfM0DKVzLo+QoIFq1hzQJ+CfADEmP6pufcX9VoHcSdeyEE3JtWtbdi34HnY4eP6pv8AcV9UowVvWZFZRt6+IO2jn2Pex8pw8f8A6b/cCWriETJ17IwCui4zAi3ZZfwPdfNhq/VN/uGhWh5NXXMkJB1DTXgX7RY+19JxNfpf9YXTZ0bK6QPJTOetqR1ecSrcRqu+wtsvz46fjnLGd4c0rA0x1EsOCumwHPhSDf4sdnNVlAlrw9rjVYg+PCNhgp1fuoq4v3hOx3HetiUDy4by3I06YN7gfeJAMSkNNGR13XuGRiDcE/cmE7hofowxOWUhaxXiNa9v9ogxMu2sTi61y1gR2erWPL+IfGVPRAiqNmBU1Bsbj+PfACQAU6Ktz2Evv73SYgtO1oJNABGhxYkfgVeAYYhaxBGt7Ti/o7+LAJJq6mASAer+Hj63jwDk9xLLuC3Fe9zyPEqsBdQqzRAi51psCLHt0uAXk0rStrQ6urk2Bt94fBIcmRlr2WQNqMxYciLGeUj5jgoVKzLHGHAClVFgPc0lsAKUhYHY7ARmwt73V4el0r0ej/71Z0pgln1cNwIkDtYFSbjwBvjWfUZxroNE7wBKigrJZBGqgtTX3CqD4+cE/HjDSXpyNQGT1egkgA0e4F3+gp/VwFRTRNUIHyupClgPuPby0IPwWDfLgONyo8PMs2DBpEWsXZVsb6pNrejHW9Rz9jZqTLktWFQ/cjcxy7FLiY9lY1AC+UIQhcCAgk+B0VBONVGiIHetjUhSqzWNzsw4yfsvibUssMkdKrqYzeAAalubcGI/sGLsGalk40oUqbM45ec1IxLSQ1DSO9RColDLxQbMOQ4lP+982JsKmkLZbcNqkEHkgbaernf4cXYaNBIatyNA71rn4JZ/qxBSGklYQqiBixUAAjzUv04bWK1cQghcAuWFMXIA2AMNRz+C+CDRx3rAzB0764Gkm/rhMNgEUby066PCFRa228MI/bgG6illLynUDqDkAX2uas2xNtaWWgqRWLdFB4yra/PvYb/sxdp4lxQTGgR5DGLU/k2vsYB9FsDR00UqzyQrLHpkmJI0H+NnP0YbQKLLZmEVzGtgoF2J1fcoxNrpeTJl6ksrTjVJA7WC7DuZiB+n82J5LpJyqWOsHbiLLUAbAi9qgD/CcXZoCLKZnhiRmjQcJQTcnfh042+UYbTS02WzIkhV0I0Ob7iwAqThs0KmVzmpCAxXEyknUbjv4hz8cNwsBjyZuqpxpFs8IAIBJ8iNP8V8NxdLNlutJbuvaLMCV5fdJ+jDZoVMncVMemRWAlUWIP8AGQ/9fFhtNBQZVI1KFZomvAO1vcdwo+n58NmhJ8mVp30SoSuryVINr1DfQPkw8jx5eGVTx1UUZaNjqW/aNl72Ff8AD8+EyXQUWTzyUGsPG/rfUQ1+XAb97EuRpTpNlRgyjMJeKzshf2u1+P8A8/mxcbylx1GrJCPU22xU0trbEjuYh4m3j44z7avTFo8sp9ZlZ6liWJ3qEBve/LjfRjVqSDjLqOS5aecG9ypqlB/vsPK/RIDlsXA6ZxJEWYRULbs+o+N99Tefz4W8bSdu66HoODWuBcNOPH3CnHDN2xjdHPsi/oOObT59k1XxI5Gq2VnSeYvI9uXHTmT4AbY6W23UZ47RV5rlfCMZrqLeGRTZ0Ha0AD47j58amNZ8oZbPMkWcsmaUITVcWcAAa2PK3mYYeN9ksvT0maZfAI3qK+jGoK4biBgV7oH50fDxXZCLOsreORFr6JjwrC5F78OQebzlflxbhfSeUPnMclm4jx1mWuiG7m6DYlreHpHyYmsjcZHTUsmWZcIYkXVNZ+yACDHGf2n58dPx91nPpygQaW0gleGpIJAPscmOrm83s9aU2Have23cnBTxslZeHVZ3N7gfxrXtiUDylF7XDJvphsTYA9y+JkG4G7+rZLB7EHVa1+qHD6B+jJZKGAMSG4zXAta/WIDjOTWPRkgrRmy3YU9yCNvYJcQtaEUbPUSMI3Z1mZ2CgEaRUPf6MKsBUAwR9m3dKeYt7HS4gmoVurTAWHZfl5ilXgkMwkGsjsujvhfSQb+uIsFK2AoN7KerWO3+7x4Bia5kl0rqId/N+HVYC0F2ZNICnWlrfy6XALyKfU+5WyGBt777QOMEjTKLIz8BGeSOdpCw37Bnlvt6D+3EUnF2Ahjsbqu55300mKm16yQcKRY1QBo2G3P2Oq+r58F2TyinpKrpdmsdTFxVHAFn2sS6g2sfT441l1EjZp8uoTA+mkgLpGjEajcExqb+V4nVjDQ9RldGKgiOihIEibByRuJL76vOq4f4t0mmymi4kWuihOt1se0R5UQPj7psEjjej9zmeZ6gA5q0GlQAANUg/Zjreo5wfMrHJqo6QL0r3ubgnh0xwx7KyKGVRk8aFdDCJgSSd+7qLft+fF9o0IZW4sYePRLxV2tt7PGcTSgxSM9H3gC2g5KPHgJgNByhmchTF2n3337VViKmAhqqK107akc9zxKbAVgcxUoKkgCC97Hf1ucA4zkzzbL7I+4vb2SpwBKVwZIrgBdSfCO1S4hOgWCtRMdFr05BPiPW8mCyNVdIrrKQSJ9jbYDjyWHxWxDTPoaVadLA8RWjjB1Ek7LS8/hvhtBagJ1Z/EiNiOe3d1JwaMRkCqU3uVqALm/hOo+jEC6KDl6xkXBgG35GH68OQaw6w7ix0s5J389UcVOF4lvwFdrsropFj/GUw+jEUKNwcvVFPaWnIUkEc6dvrwDTqOt67i4nJNvE8aY/4cAvzCaQAdKhhuL7UowFWkD5c5Ox4MhsL793OfpwDKn1+1rC019JBv8AdA/dwQuFY01MDZTwhsTf/Z/rwWqzKTBK5svdsbA+4qTt8uBBmJiqCSQAtQLWG+0yj/DgKxnTTxgab8JQQB73AP8AFgispC8V7nTocm3M9ioP04KYdz16MnbvVFt9/XA+rBarTtbLNxpIpTf09wuJYFemSIejWZSmcRyGZ49A52419XzY1j2mXSasrHRTdlXQQlSGUgMNEC/TiHpeTIshp4pG6vSU/alCoahkJKlgD5XoGJ5UkmlBkuQidODDSOHlUACrY6lMgXlr37Jvi7yWA01HS03San6jTLCXy+WR2Us2o69I5k+AwtuknbqOhykUVTqvbjnc+hFGOWbpj03lYfhacc1fLJYUPRnNdV7iStB25gTR+OO+v+ppzt4YuYvRUnQqOuy6nieczJE5kjDmMi+q/oJFx8OOmO/PVZvx3GrlmUT5ckMlMtMzyRmR5UQEpIbW3O+gi9gu9z44xfyzd23MLov12RIqun9WA9ZqNmdZVEVyNNyV8DtuBe++Na9sTfsJqSmzGqpIq6IlJIzqrYlUnUALWZey/PcG1hvtjW7IeMKwxUVOInrFQvChkpJkGlKhFvYc/KLGxFr/AAAbt2p103enQT1Kyzikr36gELffgx4x+PutZ9RyiWMLM7HsxoBtuTolx2Yi1Qp1T8VOENLFSo2buj9WAcUMlSHdSp4l1sBY9744lA8uOosGHZ0QEALYHuZMKGIiwasDL7S4JX/dDbE+gz0Za+Ww6R2eM9thy49PyxnLtrHozHGRSsNLaBTksQRy4Mv/ACxCtFEKZmzIHKdYYEDY7zuCPkJ+XEqxWWnSIKsay6CileItiV0UwH7D8YwgrKCsMgBBGhwQR7mrwpIaCjryaSEPFHh7/FgEAQKGNibt1bla/wDq8eAbnCrUSAgg63soHhrqsCppgUmg1KxPEW66b+3pcCLRQJV0UqtKEdYLorC6teFlNvlBwpD1CjR5o6yaoxI7R2Qe1aolG/o5j58ZvSwLNaU0lUqSuCXYsDpsWsaZdx/Rvi43hLCE5LROWsO7Y7De/DqsW8Q9oyEH+F+cMbBdVMAbbnvI8XPqJjzQq18qk6UUUecRxGKagjjR5V7Kvcab77A2IufPi+tnvkePo3l1FmlWMyhgFDJfhysdIW7amDb9llUELbne4OJ5b4NC9C519RoJIEKQNUzGNCSSBx4bD4gcTKc6WXjbDyEA53moBsi1ii1tz25MdL1GZORs0H+hqgErp6q2kEcu6pt8THssZUI42Tw8XtqYbgsTfyaj9mNe2fRqC4qYtZDHihQN7+yxeOFVEduoDs6r0/mPZ7hMQPS+zSl2L2dzY7W7VViAtKY+tRkWcF0uLkW7ymwUMM3UwAQ2mC2jzDgYBm/ez+SwEj7E2PslTgUWlANTFq5602B93S4hOlHYCjY3H3OSFJ89O+DXpoawKhmsVcVDMF537+Yj9mIkoFIDaPmpKr2T57UmBe1JwxgkZW5xvyPvVRgplV9fHt29c7gAn/WMAvCQKaMkXtEt/OO6gwB5WADgEm+o7Hf/AFvBPYkBDVca+HGXmd/ZYMRQFbVRA3BvT/5AwDFQAZ3BJbvGNwT/ABlT9WBVIARJHfdtaKTe/tqbBIEwWOj03BUQkEg3HsEh+nBTWrTVysCbmU7m/wDHSn6MAvCxcwhhcgJa24/1UYJtSY2pXNrkwtz8O6lP04KPI5Wrc8yJmNwffZPqwQOF2AjXY7IoYeG1MMFQ1uryFjrDQtyPLupfrwDE1xWqSBIVmUbNew6y37owAI200ZBB0mmNr/iE+vBSXTdgMjrtwdTkW+Gof6sXHtnLo3mRvQTqBquukf1qcYntWbnj0n8JsvjrliMbx1CK0y6kjczOVJ9AI3Ppwk42l1vT08NHRZlBFFl8RFXmMZjcxrqgbWGeMnwIsLW2INxi+lkk6OUcurpFGzNYDLCbD0yk4nonbq+iQUUEpU3BqGsT8C445uuHTaKFmOkm/M3OMK+XSO38G81EmyrJXKbDbaSMn/o47/2jnfjWZSK2TwFrk5fII0qABqKSsuotp81mAK+IO2N5f9cszg/VZlMaeKWeRINTaYuptrYrewKb3cEcxYWt59sYv45tqZWBGEiadSwhaQRMwCo1W9nuA3gLtp3ax8LHG8d9M3klJFxIY6unSmXK5AwqadAI1G192v2nBJA2ButgLYu/VS1OcU8suU1MdQ1NK1OePBwwQQQRrHPkUKm21rADbCXlK1enJAyjLwsav64QBSL/AHhN8T8fda/J1HKKoCjh7nhrdSCLHTLjqx6QQeLU6Br2NxYn7w2F6Q+kZarHV9UjB9WkLa1pBf4sSqpld1LjfWFpxpI2F4n2wvQYhUXqtAV2K7rp/wB0OJ7iGOjSoMugIDFuM40aeXf0+M5VqdG23onYAaurkbAWHcS/TiL20V7NUxY6Dx2sCvP1w2ICxDj5PFKzS8WGGNQGFwQywEkH4r/LiNFZgpSVdlAV9xzPZq8UnZkLatXbSwmUiw59/F+3BAJQDQLKoVOLTltl5WgS49H/ADwBJwTUSOpK95Ja493VYgPR0zTuCjKHSVbBttQ1Ux2/q/PhtYXppTRrHMULcCPWQR5Q4D3HyYtRr19MtNmCMI5UvIpO5AILyE2Px/pYzKvRyYLmOURSoBPLCsStrGktfhtf4xviTitWbm3OygorgrqbhNe4t97qsa9MA5D/APWWdaRvqptvykeNZdRMeKFNQQVvSeGaqCyx0WWR1BgPKQgkAH0XIJ+DDy/5NbrapHpq3MsyyaVA8dMUp5Aw8oPcEAeADkMvm38MZ61VnLP6Frw8ipowdLpUTAm+208IONZdpj0yMgNs5zZVC/dqX3595Jzxq9Jj2JXs5ympbUVtRsLePsVNiYlZtAobKYnIKDQQovc+RUY1UOxFlqkVbqomXnv9+i+vACjt1MBW0jgWuT7wmIQ9U2DzBWKnW9/dDVVYHteBz1uIxDQ2te0D5Q4lNgbBiGqg7JVT1cczz7jBTh7NRLoaz8V97++VOICUhtNHe2sunj7ulwWdBso6k7EL9zkc/wDd3wIcNutODbWZWOq/v0+ISKUzBVTUzFjw97/zTAvb0oPUSbhmML8m95nwUwN68i1j1jne3+sHABhcGnQ7gCJTcH3qnwFp1vxCCG2cXPhtV4gPBr6zHyuZlNgff4fqwAVv1FQwtaDYE+8L9eALMCZX7S+yN4+7qcEqYyzTR7/fF/t02BASCKW48ngcr8+4P14KPJ7OxDaV4rXuffZ8BWmtqSw0i6ePPelwQCVQ1JJbm0Jtv7y+C2DyhhM/k3Ej3v8AjJsBEAvoA86C9/TTYAJ1Glcbr3PgfeW+vAMs2mt2bczruD7/AC/VgFi4NLa7KOAb/mYPrwGf02bVk1YPJ1SLYee88uLj2mXTTryNMkaKNQkUWv7/AAj6MT2v6IzcJ+l9C0tiVo53jSTcauI/0Xxf6ndNMkKvTRuwVo6+KFBe/kSNw/1fzWxJ0a5K0d/4Q3vuuVxm49L3w9Ht23RiIplSa10szs3n2v8A8scc+XTHpqn0Npxht8xkiUdHM9WMMRxMwt6CGj2x39xwvTOzNaaSrrTTwzGqmgkLMUYJvCCove26gWsL8/RjpKKUVLBTRlKcyQQyU/EarVtL7j27+0U7WC38eZwou8s9PTrHFSQmRYlU1dQhij23AsDqGonm5APmGCFs0oZ8xCQSSytPTICA40Qkn2mjkhtyI2Pj58WXSWGUJ6hKxo0CvQGCeZiAylYiCCCL3BS3PxNxiW87WdG+nLasly3ndZ4yLD3hMT8XdXPqOZRRZVbsAxrdrc7CbHTbmoyDiVbMxjBXsXUnV3J2vi3o9nEUrUoHUxniXDBefeL82JpU5Zcq11VFVYCHIPb7tsSkHi0kVeq4OgWYDc+szhPQN0b7WWQsvkcdyWtY+zU5GM5drOjJDCikvfS0DWv+ImxIp2SRhWKCynVOQpIt9/bEi09kFQtLw5JGlkVYlYqBcaRDBe48299vTiZEBzWjNBLPTm7lYywbTuQ0dUR8l7fFizleqvGpbMEswHfDzkjv4dsE9gUadYoRAdDtLTqELNp0kQIdvh5fHgLyMRO5BurSvsf5dVgGKGVI6qN5UEiE6GDc9zTAfIbH4sSxYHmtOkEMwGsFYmGhrm1oJBsf+uWEK2aaV6imMMlQqyx1ElklXbRxHC7+jf5Bie17j2S1L0dWsFU3CjYW0HdbiOECx9DEj48LCX0zukNEtFO8CFyqoQuq/LhVBtf0XthjeCzV0zOj9z0uzcX8aa1uQ7yLHTLpjEpW1E9P0xy3qtMapp6JIZIFO8sbBgwHxfswklxT23XMtOZcxy8LUS8MsTa3WhGp0lvwZUB3X2wFxjP01SXQpv8AQNMWKsTNKS173vLAcXPtMemZkIBz/NbqSWrUAsw/jXGN3pJ2NWrqyioF7qaRje4B9gp8ZxpYxqGQLl0IbVYRkixt4VA+nGr2jRhAFVHra95ltZr272HEAez1MEsXtT2AB5dwv1YByVgZnLEt23Fg3Lt1OAvBKJKiHii4DrYK1rd5TYCocrQKpPY4FrDn7AcFNt2ppVJOlZXO1v4yowoNS240Q1MAzpb0dqk+fEIDq15eSWNhTnxsT3D4iw4b9aYljpEzXAPv0+ChxAaYmHjosL/zTBKjVpo3UttwW2P4mfAplW9eswZbdYPjv90NgbUptDRQgeMa6rtz7umxFiZAeHIbixV9viq8EHisatQLDvhtfn30WAWB9ZREqfYRe529gj5YKPUG8rHV7Z9vRqqsEr0Vusx6rauItu175T4EC8mms5F+B8I9gwUV7ipkuRcSNYj8ZUYD1MuqaM821p/apsAGQ+tGue3wP8lsF9Czi1RIeZMrW/rz4I9B7Kmsny0sP6dPgB29a2bk0Nr/AJH/AJ4A03Zqxq375f72fApWXaIK1j3Vv0KfFGd0yKvlMpt5U0Q+WWbDHtL02swA4jKxPaqY/wD9lfqxP2rFqInquk1GxkYdWouMrKN1biMF+dhfF/qk7OZtTL6t5FVLJ2DUhXQNcAhT84sVv5rYTpb2FlpC57M3NUyynB+OxxL0Tt3mQRcDK4I2vYLqHwE3+nHCusPCx8+Ir5sQDkWegrpj6xmAsBvsY8d/7RxvxrHoqh5KOOSWeSmakUMXeG7PDqBR/HsmwVh6BuMdE2HUvT0OWkzRWpmDtBC0JOlyt1S45Or7lj5SgWPMYmtmy0oWA1tfTl2kqoGLk24aCQXbe935kAWFjz5Y1pKYjqqKqgTL4WMigssSRM9ig3WNyfF+12eVwLWvjOtLsPOWlFMa+JJAGQwyI7ElonUKshsfLA7J5813OLKlrY6aOY8iy4hdamaIG48OAuM/jnNa/J1HMxAlF096CiXBXZfZdsbrmqi2q6kEFgFuTYm3cti+j2YY2mjC3YCS5BB2PETFnJVsoYa3UdpStPdSDYdhsZrUMR2tUkkMWQXFiLXo2wnpKb6NKRlEJaxVXlugubWkgbGcu2p0fkpwtKyAbiCQEW8RHUr9GMqcSFZai6qUC1DWAG206H/GMIWA0KPFTRlS6usQAI2sRBC3+E4ZEbNXGMxy+XQ7PNSrM5DDcp3yWv423+T04xvVapWkhV3VyDxBMjgryKiSnJv8ZBxtmFpk/wBFrVDhM7QksoHIiEg7ekJfbGdqdzCnVKgyJGIkklZbg3UNrmBsfTrB+M4uwlEFUqxINipJt4XpG/ZikPduqyvS0iTzCJ0dW5g8Nxe/msPnOMdUTTSGDNitkYyyGNg+4sahrH4tSHGrDa9YIoe0iyQs0ZDRSXKG/BBsfgX5jiQp3PZOuZQ87C8kZdGAW4YFXS/zg/LiTtq/blej5H8Ls23upFKQPykW+OmXTniPDwRnk+9qg5QnDKntBdR4lvTov8hxn0s7PZI9W3TPN0nYdUVolijB7IW4EZHwoTvi3qLCHQ8KMjRoQNHWagL5gONBb5sXLtMemVkgt0izYC5HXYzbkL8dsbvTM7GrQBktQdh6zYEWv/q8GM4lZdBw/U+HSb3Q3VmA29cY1e0OQSXqotJKqZU7JPPvIMBVAeqrpNn6vc3PvAxA42rrMqo1u2+xtv3lTgseo29cRWts6X5fh0uBtUj1r2fKFORa/vDYB6S/WZTYM5lZT+cqMB6muaiEix7abk+6pMQirKVo2t5XAPPcDuHxGobLBapxZdZnbx29nnw0mw4RqEQbteRYjw+5MCqy2WB131GBjv8AiZ8DRoqFqyARfrO2/L1w2CWBUoLRRBzzjTc+Hd02I1F5jq4mwHYc7bb6arBDcVvVGM2A74ePv0d8FKIoeijFtxTj4+5ixNg0wW7C58prfLV4oEHHX6a19JmXkPfKfAeU2owEt7B/kDAFkW8shv8AfG+PvKnEFqYtqjA5akvf+XTYoXYDqbBG2MHj49zgvoafZpbi/bc/pVGCVNPpWVCn8Ylz5u8gwAo1JpvKGnhDb8kmAvJcVNwbLxRcf06jABkTUE07dgc/+GwGX0uAGTkJ5JqIL7+7lxcUv0261tVRYeNZF4/7yfqxJ0rDaOeXpXSywMoWLL1MiM1g6sxGm/gSSN8al/50z7M1UUjZ3lNVFMWpTUSMUtYByh7VvTY39N7c8ScRrLtOWs3q1W6rLpoKYaT49nC9E7ru8kV48rpkc9oJvf4ccMnWHCLnljKvnEugZD0gAYsePmFwb7exm3zY7e45dysisplp3WthkqFqKelUxx6e5kVIlJF/EEE3BPn82OktrNi1BUx1dO84hcLUdj1wSyWBvw1UC8gHaIIAI1XJBG6my0VFR9TiqSry0zvwgaibQq3LMBpHO5Btdvhti2ml8zhkGXESTplogk1wlE4UMhFiCoBuzAbcjvve2JDQq9UnSpLCYS1dK5W4cpZ4+IVB8kAEcud8LNcrTnTcGXIMu02UCaGxJPLgLifj7q/k6jmxwtSqto+ym9zpbebfHTTkGq65p7OsdwoLuxse4bFDkCs9QVAVX18y9r95Htbz3wVTK9pCqXB004L3NvJbEodpKeaeSs4Cu5CILqpIF6RgPlO3x4zvRrZvIIpKPKliC1iTMzPJryyWQLewIDAgclHyYl5rU1podZkLtxBW3sVJGTNbfXf2/vjfLiaNp63UK5Zev7tquMmPO6n8PzovyYaNoFTMmzGu0kWI9Rm5FdP4fm2xLisyMJmFVEgbVXBTdgPUZjftFvw/Ob74niSqiqqFVWHXTy5ZMw3upF+37hfkxrSbQKuY06wF6vgkaNPqK17WIt5XmZvlxPE8uBPVCZr6pK3TxDIbZM173J/D85w8V2GtY3MdcaM7W9RXvyUDfX5kX5MNG3hVSKJWvVKrCx/0M4Ptvd+7b5cNGx4KmR5UknSrZdYJIydwW7Qbnr23A39GGk2HJmdTJEkEktZw1srKcnk35Kd9fmGJItsWWvmilqFp+uKkxZTpyiQ2UszHm/uj8uGtHlCXRxTH0krkLzluDSktNDwna0qAdnw2H041l0k7Uq4J5+l+XtSS9VNLRLUvMRqCKuq9x4gmwt6bYcTHk9teu4z0FTJl8aQ11NFJBwtVzGQpLRemwJdD5iQcZnra39M3oYSej8LLcLxptNze41wY1n2mPRHJkB6SZvq39exi+rn35xq9M49jVMjJk0z6jrFGSp259Xg+rExWsfLmZ6CAuW1spubAD7/jd7SHUXv4xJe4dSpB595T4goH1UOk+FOTsPeOeIQ7NqkndT4O4FrH75UYLFqU3kguuxKEbc+1SYEU7XU2sl1MJty/iH3wDbr64lLeTxmA33He1GIC0BtPExUgBkIPx0mBOgnBNDJqIAEB3H4iTEWdHj91vtyqGHw99Ni0gUJ0RwlSdHYO1vNSYhe1W+4pNBbSIjsbfxM+C01ua66g6esb3/HtgAU9+BGbXAjTl+LpsSkok1xFIQb9h/H3NVgezMQcV6hQT3w5Afx8eAXjutJGRseCvIe8w4gJMLGTY83/AG1eKBlAcxoxq7XHHZ0+HEp8BFh1VNiTwL7D3gYA0oInfw7bf26nAXhuahNS2OtP7dPgAWXqQK8zD5J/EjBfQtSVLShhY3cgAempwPSi6BMt/CVduW3EhwRSJPWvMEmFbDz91F9eALJtLvc2fa3w1OAH7ZQ3O3002C1j9KgPUyIML3qYNx8MmLj2zW1WA8ePnY1sVmt/vD4k6Vz1TXdQ6U0zya+rtQRrOyC+heYf+i1jjUm4nV20q6SZM3yqk4KdWWSokDpzVtDXT4Be4PmYYzqaq75Rl4/0zmusn7lpV2/kYt+JO67rJbeplOAdR0W1Y4ZOs6OJ6RfGV0+cSaRk/SEKQT1jMDz9ymO3uOU6rGpKtXoaKqqqtmWJBTyQoA+sqpFr8+0jCyjxBPgcdLOWZeHo5Fp6lRKzNXUisI3hcBZIFUspYkaUQjTbY7jwOCISqJnqKeGokpGgBnnSmiBIJtcq7XLMC2/K/hhqHJSPL6RImbManr01YwEUsTF303sHQHdvOQfMRscatJL7akYq6CCYTT07JDSPEYxuWQRkXQ3vZtKsdvEb3vjO9tGemxCZBl2pSx4sNhfl3C4n4+6mfUcxDIVEYclxZWCg8t5b46sXoIm7zK7My2Xa57PctvgNBHDVKSTMZQWuEV9JHeJbe2JVUykXkBbtRhafa+57LXwo18nm4KVZd4lRjS+XIi84vdMMc6uL01ZSm69apCu97y0/L4ycSKhamjIIM+XhR7UyU2KWhrUUDFiJ8vHhYvTAHDSbEFVROqK1RRMFFgDJTbfHhpYkVNAlgk1BYi1zJTHDScpaoy/YpPQHwJL0314sht5aigTSY5aC4v7em+vDS6qqT0NriXLyb8y9N9eHBVxNl6WHFoCw3vxKaw/Sw0R7rOXaTrkoL+HeU236WAgzURZVEtCTa3l01t/6WIDJWUTTItRLSSqtktxKdSLCw3DeH0YArTUUU+gVWWygXCsGgAPp8rxxCrZG0bdIqzglHU01LuhUqe/X8HbFy6J2PDO1P0lSFQHlqstjSBTYB5EfWE+MKRhrg3qi5GnVM+rZGnL09fMlfTsVsdKlzKD5mUEqR6cS860FuiRVsiUwgqjVFSVBABAMkJAxcu1nxZuSr/3nzcEXHXYxv5+sY3l0xj2JVDVk0+gNp6m1gRv9zw4zFrJyxSuXwBQx7JBuBcbz43l2kaEPs6GInTrQ7gfh02IBIpNJaNWv1c8/xDYiw81zVuY0teVtz495PgK0ZvLF2TqBTYjYXalwFFB6q4jVmJhO35CTAP79cZbdoVDG1h/Gz4jV6EpzaeIBRqLJsPhpMRIrOb08vYj1NATtyHcS/ViG+DLfdjs5BbjnYfj5RipAoWXRGCpDBUI81tNJgtS9zStsobhNYfkqjBRizLXeQ1+Pfnz9cHAVo29axkq1yi7W593TYlSLS24chC+0e4A9zVYKajJFctxa0wFx+PTBC0QPVoxZt4V38PYYcFFceXz9vuB/OsBUp/pCnAvtON+f32DBFVBFIv4gf3C4KYl0mSTxF2tfw7dTgIgW86WLHvE+LvKfALkjqtwhsYQPP95XBb0JPYmUr2d5Of8AxOBUaT1lFESuBKL6mt98jwShUjDqqdrSeGBp83dw4EFlXvDaTfVv/wDk4CO1xktsbi5/p0+C1j9KVHqfSmMNvVU+/wDXxcGa2qtT1qGw/wBcjNvy8uJ60rIp5Y06SGB0DPPlsCqAfLtZnT+kt8X0bHE8cNRQZb9/jLlbG+qNYXs4PmIIH9HE1xSdx6hH+lc686wU1x+Tw/qY913WV6jl1OSArGMEgbDHCusMqAo8wxmq+eVTiXLc+eONo445K0FQ2q7CNLm/pO9sdtcxz/rWFHSSZPeaP7lCJFVoO2yylQSwHnXXsviA2O298sa5RnRZqWBJanj1MwLQPTRhlcEhgpUc0L+SeYIPMYkiVeV5YqWSrrppgEmVmjpnQFCDsHfzAkbDVbYbYbWQURS9aeGiCCnn1GNwQY4pzddJa9rSDYgEWuDYEYG/RTOjM2WPUidesIOHKVUA8FytwNybBxsTvub4uPCVtdMZXiyKgeKTtCaElthzgHn8+Of45/1W/wAnUcxG1pxokJOlbFgB4y47WuQMZKzyGMlZVCb7EC8Bw9BqFS1SApGoyXvsPvkeKqcqJM9xcSaaY3J59lsZo1siaZ5q0RaizLTFiuoH2H3KN9Hw4zksPSx1Ke2qQwPIGb7IYkVQGqL3L1YbkbCf7PA3FXWokcEirDqLBu/5fm8U3Hr1bKC3WQ4sDYT/AER4KI4nsD662G1hP9niJt4mcgq4qRtz7/7PDZwhBU6Vuaiw3BAmt/d4HaL1Ow9dG+4bvt/1WCrE1Fh90qoNySJvssBKicR3tVqt+fffZYI8qT7W6wBa+3G3/VYq6QvHDK/rk+faX7HENGIXqVYGKSsPgbCcfsixBTKtTdJqrju7MaalFpNVwOOvPUAcXLpJ2lqCCq6TI841CDLodKm69p5Cga4/Bvf4QMTfC6FdY85y/MIEIM8Ukim4AJmQNaSw5cRFZWHnF8JxQt0KbX0djcqbtPOQSdx24MXP5Jj8SGTAfwpzYWsevR3/APMHGsumcexalh6izNJZFFGRvfe9NF9WJi1WPRgTZZSDk2lrkqd+1NbG72wapgRLESuk6ksQvPt02JVXkNqOzKB3BF9J37hsQh8AR1EgkIUGRyCVO/ezb/Dge1aVtfBuqr5G4HPekwVAXXTNqXSOCe0B7zLiLIdkQddkRN++btflp8C1em06o+yACUsT8NJiAcg00jByCDC29veZsCHAWNWRwwVFQdz+PkwUvTgiOJgt+zH8XZpMGatJp6pIfBYmv6e7qMFMCz1tuYao5flzgoVMfW0akH2NfD3umxBeQ9iTfVZHHL3FVghkDTXRgC4M42t7+mB7LJZaVF5gQLt+RhwUSpfy/hf/APlYAsYHWYr73lUjtb+yw4vohcWNEBY+wcj+JTEILPfXIo5an28/aqcASmA6zG2oqeIv95BgACz0iarqDENwPekwKtUn2W+1uJ//ACcF9KysqVSrMo08W/le+p9WCA0ja6ZNSlW0KLHb2kGCQR10v2jbx/RqcFTp75fa9of3sGBWP0kv6n0YOkXq6b9jYQrZqrmph7Vh1yLkPfpsQZcFNSVfShlqVVpVoaYxnVbRy1MD5xt8GLej2YnWN6rK5GX1x651c+yeFd1/r3w9HsvDNDBmmeS1UnDiWGmBcm1uxth6MeLX0SjIekhZSpQopBHiLY4Xt1gwALWNyR5tsRXzqYoMv6RKuk2qKxQoPO0SD6MdreY5avjWVmU7NVVjdSRCoqGScWJa8bqDYC/aFxcm3Y2tjpLwzYXyinXLYBDGHevka2kAXlFr6EJ5L52HiN7Ab220k4HeJVopHgMc6uxHbQtTRFQLEkKNQLDdvIDb2I3xJ2pWropK68Ly1bZiih4zI1kjYbqth2Qrdq2m9tIN7E2M2DySdaWuK0JhjqY5hxCqglgGc3HO+tSu+3ZFsCStDpq8cnRuheRmvxoSLAczCOf/ACxn8Xdaz6czHuVElwAgA02ue1JY462OYUdmkl4u0YCG1wCe5bFDhNnUMNMfE1Cw39kjwVbLEPER2sVdKYjz+2GM2DTyBxAta0tMlQrLTAXKbdyD7Z1+nGMuVhyfMVWQBsuoAtgBc0xP95iSLuqjNYw3/huXMCfNS7fp4eK+SzZlEHJGX5awt4Cl2/TxfFPJ4ZrC1guW5dptfbq17/18PFdp9VoSLjLstNxyHVhb9PE8f2lseOaQkD/RuWAE8h1Yn+8w8TaTmUQRtWXZcLC1rUwt+sxdKrHmcNgBl2XtY+PV7/3mJ4m0tm0JXbLMvJPnFPf+8w8b9m3vVWEbnK6D0D1v9pho2uuaU5TUMqoPK7IApyf7zF8TbzZig3bK6Fbm24p7/wB5hoWXMInOl8ty9AeZPV/tMSwi2UyRP0hleKJIwaSn7MWkr90Ly0kjli3iE7K11RJD0uoUSGSZJ6AQzRJcl4yWJt6Ra4+DCT/lN8taBkoKqXMw6yRSok9S8akmYJfTMg8zXsw9qee2ItZvQlv9BiMrpcT1BIII03aE4uc5J0QycW6VZs1wWNamwv8A7R8+NXqMzsSdo5MmlC9sdUYXudrU0fh8WGPZkQpQq5XQhO8ur72O1mm+vFvbI9MLSRMe12l/o9qmxFVIC0hGoSdweRO3cP8AVgRoaiKu7MJAZWGje476XlgsRRCwiIINtHZI/mmAgsRSPbtHgt2d9u5m5/JiLDob16wa/s7bW9+lwK9TMpKNv7Ts/wDlMQ2rIfWbkNc8J9uf3qfAkOBgaltII9cHb/iHwUKls0URJ0BlS1z7ikwZqSO4la6r3Ti1+fYqcRo0FUVl9lPWOR/H4JAIDogiZbbxKbHw7umwVaUECUqCupG7N+XZqsAVG9dpovfji5v79HgAxfcibi/AXn+JiwBZ9bs+1vL/AP5WAJEo62pvuJlt6O9hxAur+t1bym4A5n3hMUFlbvpSd27e9/dVWAtDaScK4BHEUc/fIcAFLx0kZXxhW35qLAXqmdTNvuQ+9/5zgvpMl2nADXPF817d8uEQCk1qiK1nbSlzzHkU+FSdLTkrJbmfl9pUYiiNdqhRfVuN7++wYoxuklxQ0PIjrdNyPobFx9mTZqyVqYT56yP+9mxlWPT0oq+kutZGiMNBA0ZAvZ2AUXHiPC2NekvfAjJFW5ll2awgpKY5YKhNXJuE1vj2I+IYlvBO1ODS1k+eR1vGELR0mso4DadIxbxIe6+i0GhaGBYC2gRqE1c7W2x5726zoyt/Nc4ivnjJpoOkt0Cg1FbY6Rf2Fcde7HP1WNJJA0dJUk1cvWAQIVubtoEcqgcr2uTcjmCPHHSzVZTLop6dsuzKRI5C2h5uzFqgtbWD7bZVuBzOxG2Lq28G4z0kY18OatOWVadJhAkRsFVNNtXkhOd/HmLE41wx2ajplioVohWyrJFrKt2WZ6cW16QCezZmZb7izWxm7a/QWY13FUV1G88kDrJBIjOVXimMgS7gbMNW9hcqTzOEOmt0ubh9GaFowpAkpwCQGsOD4Yz+P5VfydRzVPG8k4SJQ7WG21vLlx2c1Y4WZpCoOshBYKP4k8vT6MAeIsKhdAdpNQ1XtseJFvgr2TIesHQAW0U1wRy574lGtkSPIalljdzppthHqHsI9w/7BjnlpqNZ8vrzp4NNVBW3tokA3+CIYkyNUI5VmRXV1WtDeG037mHlF8Xly/NG26vXKRztx/3MXyPFZcuzE3tBWal5kCbf9DDyNLJluYlRrgrBbe4Wbf0Hu8PJPFX1PzJwLU1YDyvae393huLp4ZdmT2vTVYb8LTN9nieS6X9T8xIAFPWLcdq4mJ2/J4eUTSnUcxZezS1gN+dpt/1eLuGkep+YLe9PVhr7HTMf8rDcNJGXZhz6vVjfc6ZvssTcNPCkr0JD0tV2hYsRL9lhuGh0psxUhRS1A289QP2R4bhpFBHPH0lnWfiI3VKYnUXJ+6F8WAOGV4SdrI0S9IySGVvUlbEE30iUl7H0pfF/qewcpmrR0jzWjmjQLFIamIBbKupwoCj8F0axtsefPC9SkEyeGCno6mKHeKKuq0S7HyQ8NhiXtYxsn0p0uzi+zNWobC+3rgY3emJ2NOsfqVNoAF6NuQ5+tY8THtaz6YE5TQao+DcMfHlrlH7cavaC0llkiJvGQyXv4m9LiLXpEDUfYcIGgIsW94k54JDw4ZqbAaFErdosdzxZP+eArSkd1wzpHZuxOx2pMFVmY9VZb6WMLdrzjhT4iw/GwaumBNrzntG+/fSYLUUnZER7PJLsD7mkxEkQ29NISTZYnF78u6qMRTy3NYCW24/Mn39sApCW6uq73VUufP3dLyxUokq3SVna9o3A/qVPhiUNIr9cHE/j9rfjxgocH3LGxv7Ctr/i6fATKpCya/wH+XTV4JTCfdsY8848ff48FBjLR0sJcakEK7A+8xYC8xbVJbVtr3B/nWAND7Oh8q8y7flYcAqoApEJFu5HI+8pgsFmFpJTtfU/7arBFoOxUqy7Aype34yHACRr0qFDpvEv93FgolRuJuyFUI+42v2anES9KtfrLaeQm3F+fe4pAqIdzGSmi6r2b7EaafBJ0iRSSGAOm1ufvdRgoh+6VBVlGsc/x0OAx+kbWosv0kj13Tf2Ti4lbdQPXUO+/XI/72bEGJT009T0uQwTpBoy6HXqXUjgqAEI9J8fDF9aSdnGVMwXK84pDIAZJ4ZlY2OsRvbV4M2xGrxGJOJqr3dsrNahoU6RNGzLLwKPcc+QxfSfb6VkblskoXfyjToSPObDHny7dp0cYkm9gfoxFcEy3o+kaaRtVVwFh54lx29xz9Vz0EEtDQUsgZWimiV5kiUmRJD7YA9knSwGk+Ut/i6XljaCglpKaEwnNIppmeWZzeIMbkkG94mPmsPTfnicp7VqKWhOWVnBNU1HSvobRUIVbT2rAlfO/jztte2GylailpaKuhlyeNqiOn0zvOrFlIN9SE7KBa/p3xvfHJOz+YU9V1HMIKgQmnhifhWUhhw27BN9r6UIsOV7kb3xmcLWh0wMR6OUDTqzx8Wnvw9vvBt89sZ/F8qufUczB2nVXOkWW5IA++SY6udVAOoBwUThxAEAb902+KDIgEkZcMsZYWIF9tcWJKomTvqkRLEJams+nfcnxxKHsvauiilaganUOtMp4zupNoRy0Hfc+OM3V7WbFY5wX1PJl7C9tQjqCbfJhxV3Uhs2YDW+X6eTEwz3HzYmobqqnOCpVZMvIuTvDUX/AGYusU3U2zgarNQyDxUQ1Hy2thrE3ksvq0VALUDAi47moFvmxNYn/TwOdaBqly9ha5HCqB9GGsTeTwkzlXUcTLtySF0VF/2YusTdQJM737WXc9uxUfVh4w3UrJnRQ97lxF720VF/2YaxOXg+ciy8TL1A2sVqNxiaxOUiozy+lpcu0jkLVG+LMYbqomzl1KibLvKvpIqN8Xg5M08+dm2k5URzF1nJxLMTeRrKZKlukbrWcESdRjvwVYKAKlSNm3+HGcseOFnN5Arad36TUlSsklP1Og6wzp2m2d1CgHY3YgWOL/U1y1FqKWqqZaMzLTZhlvKSDfgXtdkv5SAkakN9PgcZ65Xe4R6NUktJlclPUhuNDVVMclztqDQ3Px8/jxcrzwTpmZU5fpXnCsW0iujsL/7yMdL0x7MSJ/oWQnmKJtyeY6tHjE7Wk4zqyXLWbtDg89XLvJrY17T0rThWaFpG1bpuDe29LgIJXqZXmOEfG33iXBYeftV3lagZmsoPLvpcAOkvojDMxUBNr8tqXAEZSaFjqGngudIPk91PiLDo1NVSA7gTk21cu/fEWqRkCKItvdEut/c0uCSrs5SmlUkqrRuGXVvbh1GIpliBVsyn7/a3m9cHAAiLNSxWY24abfk6bFS9rs2qnc7bI1x5uzVbYimkHrzW3aHHB58u/XAChdurRhSBaFfl4UGAmYsRLuNg4sfgq8EpqH7riMbhbTLqB8e+i5f9eOClYyerRlWPsC+O3sMeANJZmYqwvqfxt/tWAJFbrMa++r/ewYLC8RIpFufvW9j7ymBF5L8SU2ubv8W9VggiNprE7QZhIL28O8iwAUUdWjvZrRrv+ThwFqrdJSb30uB6OzUYi3pacK9SQ24M+kD8tioWo9SwomizBVt/Vp8CdCEXXtHfTy9PDqMFEZNdUgXnxP8AOhwRjdJOzl+X6gbispt/6JwxL22Z/uun5/dkX97NjPsZEMNWOlAlgUmCPL4BP5yCu2keLAre3ucbt4PZx5urz09Gitw6yeSeMIBoRuG5YX9OoEeg4ypX1WqMnrc3qFPEWKmpGCMobmFGNTmJLq19AyqoaryymqdGkzRLJa3K4x58pqus6NRxi9mF/ixFcJQRrPJ0khlXUBXTrYC2zQ7/ALMdcrrTEm9wvV9Dsu1giesDxIQHEu5tqUX28wA2xZ+RLgXpOhtHTyJLS1lfBLqRbxShSQxj8beZzz82LfyJ4DepL8IscyrXKprJZImPkFuZT0WxLn70eCa3orBORHPX184Z9A1hCqjUQSBawPLww/l/R4AwdE6R43YZhXkzAFwWQntqmo8uZD7+cDF/kPAPpoiL0dpoItbrDPTx3IubCNhf4bDF/F3T8nTm6RdLK8RDk6QS6gAd7JjpXOl4xdyEUM5WIbre3cki2NIbiUGdNNmbVbSVNgdUN8ZV7J1K1KlSWbRTdkrsvbOJSH6CviohJxJHUulNZVjdiSIAT5Lry9OJpdoOe0BJYmqtc3vSNbzfxvnw8avkqufZeSLdYJ5leqt9ri+NPIU5vQqyvoqFJFj61Pp5996D8mJ408k+q1KJiDDVqbcupsSTsP43zsPlw8TyWGb0pF1jqlUIZD61NgACSfZfNvh4p5PHN6QFCVqkL7AmlO+9v43zg/Jh4VfINc9oNdglVrte/VG2Bt776R8uHhTcQc/y9ZCuqe6m1xTOP83F8KbT/CKgA2kqQbbEUz2t+dw8KnkIufUEi60NS+ndm6u+kC9h9+89sPCnkGekWWXF3qWPnNPJ8ns2HhTa4zujDgA1RdT2iKWS4/Xeg/Jh4U8hkz+kChr1WnTe5pJD5vffSPlxLjV8h8hrIazpG09MXeI0PMoUO06+BY/twsvjyTsetqRB0sp4nIWKqourmTwRhKxRj6Ay74mv+Vt5FpcqEPSurqppUip54ZnRGaxV3txVP8kXb0ixGFu8dJrXL2V5lHmENbXQjsy1lSQpJ2ULEwNvSFxnKa1VnTKy8t/DLOVZdIWti2v/ALyMdb0xOxKi/qPLpUC1GRa/+7JjE7apWlIbKqQAaUNPGSpJII4k+Ne2fSsHZaILZbMmwPPel8MCJkKpSScJii8A7Mb37iTAhwM3XfK0d429+fey4LAqXy4Bq0P2bk+e1LgCPcROEut4WGonb2KfxxFh1Pu5yDpJqDuTy798QvSsAJWPTz0oCdXuaXAiJrorrftNE5vqv97qMFOqNFUwI1Mai9/P3+IAUwKUqix1cNCDfYDh03MYILMloZGGx0vyOx7FVgpi+muXV/tA3v7+uADGy9XjZwO1Epv+SgwFp9xKT5n5f8XgDIxetjLMb8ZeR8ONDgAxfccfEGwgUXBsfYY8ASoZn16rc3/bVYgLCwepiDe1kW1vxkGKAXHVQLADgi/5lMASUWMp3B1Pff01WAtEo46nzyr/AHkWChQm9MnLTw1v+bhwSrVBukq7AaX/ALNRgvpeUWnNtI77z+/HBAaS/CjXUA2lL/1afCiNhYXI7O/o7FRgDPY1K6Dp7Qt6e+hwGJ0h0rQUJI/1um8Pcti4dmTZqUHW6dkY6evRD9fLjM9qRaqqaTpRogpnqac0MPHCi+hQrdr9vz4sm4nteKMRVWUpTEz0plvHLrDBV4LhF9Pw+5w9LOy9dRPmea5zRQukUk1LRgM24G3/ACxZdRPbuej11yHL1J3FOg2Ox7OPPld12k1DwaxvqVQfTiUfPo56eHM89R62ppNde+sJAJA/dgc9JsLE47at0575vJafpFTI9lzipe4JJNKg+PyPTizC/Sbn2Kmc0IiUtn9cguGA6ihBK2tvo9yPkxPG76Nz7DfMqB47J0mqlBW2k0Kb7EW8nzMR8eLq/S+X7emzWnREt0nY9vi2egTZud72w1fpNy+xI6ylCgjpWkYNrA5et7CwFv6oHxYav0cfbM6VvLJkTs9c9UnWYtLGlWIbBx4c9sa/H2zneGJCl5IrjShKG+nn3r46e2KFGpeoLsFjXhxWIFge6bFDMSkvFrACFhpIFr9qHGVXyXaqA9jGilsbHfvMSrOx6eCOVJeIhsKVDrAte9JJf9gxSQ/HSaq1BxBbrA3I2sZ0P+PE2a4Kx0gaiRyw0rFa4HiIYz/hw2mjklAzTyoJDbXILstyO1VD/r4cTa6TBRaqiMcUHtryX3dN9eEpYEcvDUSDjiywMT2LEWge3w8sPIkOrQMa1iagMeORupJ9nk+s4nkuoDHljsseudT2EtYG+60vP4MXySSFRl8nqxwBJGxajDi4IG1SD9GLMuDRqbLKjguq6D2H2B5dipGJ5Low2UVCVQICsvHN1BFz64i+o/Jh5RLjSK5RVSUyiyRhoh5Tb+wID/aGHlDxPvk07PK3FUEyPYAnddVQb/Hhc4sxW9RasTKQ8Zs6gC5F+8p9/wBE4nkaKUMVRTZyhUQiT1MACO7DUNQYHYHxGLeYThorV1K5i1W1Jl7yGHhAipcWXWXO5j8dVj6MZ/RtSretq8tmpp6SiaOSMoStWV08ipHY9rvb0G3LCTRbaRymCbKaCSmSnjlSRnfWa1Qbsmn8Hzb4uXJEUUhbpdm8jpcSz08gIe+lWlVhuNvHwxq9JO1pwDk0gJ0g0hFzuLdWjvjMWlqNjHk8B7L+t4gCDt7JUY1e2fQcWoTQairltBJDX0703PAUvpoittXrc7huXcSYLDrP65ZpEZwJDqsdx3s2AilJd4SoLAqnjy+5MB5iFpXJJfuXFtXLup8RqHtRFc5A2E52De/vgl6DhJ4EQG66Ut5/JpMRIpO15ih/2eS639xU4pGonarHCtstQTYn3/GWgqe3CRr37CbA8+xTYJVpTeGTb2ji39CqwUcahW2UixqAbX9/XAKRH1nGNQ9hXmfeYcAaU7TWHLXt/wCawBUJNdGUN7zKSb+/Q4AETesk0H7yBYn3mPAGmtqYLfUWbx9NVgCUzFaqO41Hirff3yDBAQWMCEG/c+fl3KYKLKzcWUG2+sfpVOAvFc1C6rk8Vbb++Q4AEAPV01bnhr4+9xYC819EpO7FH8eXZqMCdLuWSq1cNmHF8/hxsQ0VoZXlij1ntBV28+1Pik6XkPZGqz/gkHl2KjAXZ7VCk7rq/wA2DAY3SZi+W0fauOtUxA8eTYuPCZNXOJ1hp2mbWzRVCPdTbtCaXEkW1zv8KqWWOQzyVHfRrFL5N2UDYeR6cbuFTy+16DPcrpoYkphXpHGdSqi7Lvf8Hz4mWNpMptpdFa1q3pPXTAsY3NMBxBYgchfbGc5qNY9u/oYzFSRIq6NKgC3hjhXUyvp3+LGaPmdXQ0tdm+citaZVjrmKhIZHO6L+Cp57ebHol1jK5a3azpOj2TDT28xVmHPq8tj+hjXnknhFv4N5LLEGafMOwbseqyePL73h/JkeMDl6OZKQFWqqhvuTSSA/3eL/ACZJ4xV+jeXC/ArZTe1w1O4tbl7TCfkp4xKdGcuR1DZixtt24W28/hi+dPGFc8yymy7KZeqVHWQ80QYlWGm2q3PDDK2plNAQM2mLymUW1Jbl3zD9mNXtC1OwEt0jLsY4SQRe3dnlilNRg6lYaSLDYg7dqD68ZF8nCirUgXbRTAqynbvRvi3pZ2NQFlkclSy8CAFTfxppRjNJ20YWIr4z48ZdiL272DEUpRo/qa2xvwnJB9FOD9GFI25KNuPKV2PFfbnc8acf4xjNpYWpUDToRZQCGJJ226o37MNmhTEFpmCsARCym/h3U6/4TgppFPqiVUW743J/Hv8A8sL0ew6fZI7ADsoSTy8mlwSFJCG6QjSNP+jzv8FTizpPbU5CYLY9l+14EaanGWziEtVKoIuZ1uef36P68QoKm1HGQ1y0HPzWgU/4cVabaz1MiX7JZlB/pTj6cRFgQZ47XN2BJv7qA/TgrmM2khTPVWqolqovUq5I1BiACCo3tzGN48xislq/JQqaujs7KT4FwR5/bY1JWdz6W610dbtvk9bYKDpWV9v0sNX7XcVnq8gVQVyyrHtbGaQn4fLxOTj0dyh0bpFUmEFIyKLSpYkrZk23N8W9E7EqGtkU3M2ozcDf/V4h9WMzsyDoV1ZBEY9u5hA1tv5VSTi3sAjQF4wkmka11amAudVNjQGtxRSMHA0wHmdz3L7YlI0bq9WwjYJeU3LnZu9m2wAaJW7lld4mst2J8ralwRLOOryqoOvgsd+XsU+I2fUjrbFNjx2udXPvpMRNogBEUPa7WhPH3NLgsLVO1Xse11STtA+4qManTMaqXFYN7Hj872+/n/njDQNKx6rEQTcxpY/k6XBL2LKxEMp1HyGuQdvIqcFES5rE1KN6jf8APriAQX1rGGH3pRYH3qDFF5RcSb2uH/ZV4AkVxVxhm+/Lt+WhwAIz60jFtuAN/wAgmIpmY7Nc+2fl8NViovFdZ42HhIv95BgsCRvWS6drw9q34lMEgkvssu+13/tVOIotO1pksduKp+HvIcVAENoRyQcNbg/i4sBaq2WZgeave/8AJqMF9DMQJ2AOnvrfrsRCUCrwk0WVtKKTbfyafFFnYe15229PYqMBde1VA7ruPH32DA0x+knay6m0FdXWqfxt+Hi4pWpnkYNLUBtF+KLhpQl++l8cTGremHQZW6wRpBk9HJcC7NXLz+Hh41azId6nUqD/AKFyxGA3JrfqjxN8Kr0U1fwqzAPGkTs1NeONrqN/A7YZ/FcO30PLAeowaha0ajnfHnrrBmuwGkhfivjNVwfVmlzXOpEqiix1z64+CGDdyrc735A2+HzY726xjGt1h59G+Vslq6plLTSQFY6ZLsUaxPPxuNhjeN3wxRcuWqzBopPVGph4lWlJoelTYtHqBO/othbpJLe2muTVjoCc6lA03HrVQRcKfP5n+bGPOe2/EhLRVNHVNCM3qZSlOKg6KVLsOJw9I353xqWVix6nTMqoJFJXVdI7VEdOVmpVBu+qzbNy7J+XFujVK9Kaaopcl4lZXmpWSeJUHDC80Lec/Bi4ZTfBlOGLCCKlFKhdRAF/G0zD58dKwHGV46hisRWKHcA9ruz+zD0o/FvwthGtl5eO8GJCr5KCawagVHDp+0Ad++2xmkpmh7TtYFTwKdQ3n9by74UnbQj3qYlIG0ynVpNz3tPiNr0xjjy+kGjivNFaOMHS0t4nRt/ALtcnliBiSCrqGdnz6oinIEzJRQFlVW3HZ2sLgkHxBBw2aDalr1UA9IM2JB5mgkB8BbY+gfJhtNLU0VaHUSZ41UZlMSQ1VM8QmYq1lDEWudRsfAn04l5JGknDqpEqEVgnE12bZkIlUFWHgwJNxg17Jx9mGO5OnSu24PkUuFQuSV6QbqbDL2sPP66OLOk9tKQgRS2sBZ72/k1WMrTFRLHAHqamRYoEkJLG53WWFgBbmxANgMTvhax6ysqauGWOknqMveNRHEkQBYvyCOfbOwPIbJbc743JpnexI6av4aySZ5niNp1MOFEbGxY+2/lb+jC00ZVMyMoiTOM5DLsFMEW5uAB5fO62+HENMx2z6TOYpsvnetjNMRG7ERre+jtpfZgxsR598amtaqXewIM16STTvDT1NHxIi7sqOpIC3vffwscXWMTdMy1HSiGnfrDRRKhAZ3lW27FfP5wRh/yt2pTVvSauiSSmWmkidtOsS2BPZG3a8CwHx4n/AD6FMrMj9Ia1qkLxkakjdle41B1Bt8Ywt4J2tVkplMuo3vRkXv8A7vBiTuGStCSclobkktHHcC3gKk41l2ToCNrSILDd1YEEG3bp8VFCWagIe7XgLHfn3D4iw7KbVZPabvWtZuXezYCsURLQCVtSdncHf/VcQeNxRsCDo4LEfmZsFh8Emoc8xxyRc+/SYiJjtoiubqqoLAi42pcF9FnU6mLbqKZ7+P3uowSdtFzetO/YNQTp/wCIbEaDpx62jX2pjS39SlwSrytaCXVe3Dbe+47upwU2r+vvLsePa2oA+zjBIVi7UMZX+LXx5jhQYKvMSFYeA1+PhaqwBkYdcQ3Hs45/jouWABFGTSIA2ruRa/h3MeIDyNpZyBvd+R9NVigsTXqVtctxBtf3yHEtWAK46ov4XBHxdyuKDTKdc1/bFgP61TiImLStTGL/AHxeX4yHFAUb1sisL90u9+XdxYCancS697I+/wDRqMCizWNSt9++2H5bCBamktDGJbG0a/2afATNqQqGJ+EH3FRgoj93ULq2V7N+sgwKx+lCx+ptMpa1qmm5D+Xhj2laWcUy1itS6mUT1CprG9rzyYmJrbkq/o/FRSVEfqpWSrTQwzEKm7cQ227WOnltnWlKTJJa5Yh1yppzJK0Wman0kWQvvv5hhcpIScuh6KUfqdn9TT8QS8MUXbta98Yyu8WsO30LLyTQwsSuooL6eXxY4V1grycPyoyfNbe+M1XFx3XMc/LIQrVj9oX39anHS3iMTusnPKloszCw0xqC1ZVRWRtDgMqXKt7Ui97+FsdcYzb0mlqnqc7TjRyU+nN6VVilPaAEDDc8iTbn43xKsrbTsUguC1o1IIv/ABcZ+jHNplZsZBnMhpVJlGXsE0c9QrNhjpOuWKrlCVbS0zVxgkWTMKbq5g0iMIOLYDSbWBuMXInYHTZoY8hiMsZlHGiHlFbEwHfE/F3TNzFOp1xXLOykAAG59mOO7mDGpLgnt2jg28V7sjAMxaNaXDMpsdgR/Eb4z7BcpW9Wva1WWnARSf48YuXQPR3UujXJ4NN2bbjuJcZpj2ehZjPGQASGUEXIt3lNiN0rk9XBLE93C1HaEgcFl0K21hy0i47A5nc3G2LcfbOzVVOsUMscd9JuXDsSzOVqEZifEnSPksLDE0bHpqwGtuDbVMp39M0Jv8+JYu0aoavKxBNfhmAHbcowhSzD0jf58ItHyyveCuSDMbjMJZuqTkeRVqoOmVfMy6Rc+25c8SxJRYLcJLaS2hCbn3umwpOypUt0i2tfqDi4P+8nF9HtpzklZHYFjpYG38mqxlWNX1oqOk01BxGhmjkBpzfaxQXC32WQn25vty3xuT2zbyfphHToOCBpC9mykBUPAcAA8rFjz3PM74y0tLJ3MmwPYcbDl3dQPowDHEHqmSy31TAf/kf+7AI5G7DPJlDAg5dRv6NQePn8Jxb0e0ZZWPNNJRrEVigiqgZU8hyBJbw8rfc33t4YWcJO2vmpemimeCM1DiZdMfMseOw+XfEkWq5PLM1OslTC0ExmYsjMGI7VONz435k+nEs5WdOdye79Ic1N1GqsjtYg2tK2Ol6Yx7pmuOvJpyAbCjI5C/sFP9eJj2VXLBfKaAoAAIozf8nVYez0VpA2pAltBkW9yL+XT4qAKWWlJjBULATfzdw2BGiF4lc4RlW8rXJ8e9mOBHoWCSRGM9vsEm97/cmIsDsTRyMG0ngG9zz7mbbBo6VV6tymrVxm5+PfS8sRNr8pkVBewS5PwUmB6DZQsLkBi/BfcHzxT4JDvZ60bg6+OfgA47YjRenIMMOm5PDS/wDVpcEva724Lgk7xvcejh1GCjiMDMQRbsz2F97DjjAikQbq8ZtyiXly9jp8ASdezJqsey37KrAFUAVyX0+yqVP5aPAgUT3o01HUOCu3p4MWAvJ5T3YW7dv/AMrAFht1hCLgmVef42HEsWBXvRgG1jDz83cpikFc24jLul3/AG1OCLRv64Up4uP7yHEAITqgUpy4a+n73FgPTk8OXT+A4/QqMUq1QZjU3gZF77tBhz73CBaik7mNNhZE/swYVJ0LJdnBjO1u0D/IqMRfQtZdp4eGQBoS/wDXp8FrE6U/+FwlfCqprg/lMXFmugkANbFpsB1yPb8u+M+mowqmaePPJp6OHjT9TpSkf4Z143Okvb1JPJJWUK1EMtNJDO8Rjmcu47hubHnzws4SdnMos3Sevfx00N1/o4zl8Vx7ruMsXRl1Ol76Y1G3LljhXWDsbAdrTf58Sq4pbHN+kNyARV3PP/ZWx0vxjM7rIz3jnMW6rHDIz1tTG8czWRoykevUfAab3Ix1xnDF7iaUyvmNLNPHTxiXMaF4lgk1oEMLqtm8RYeOJfZ7/wBbiL61Dg2HCHj72mOXptlZwSubSGM6GWgkIK7G/XBy+PG8euWL+gsoOZNPSJmrWlXMaYqAU0hSZeWna973Hy43lr0TfsPp0zDo7GyMFIngJN7feTifi7pn0wIgWq+4l4YsB25AGIE/I47VzIU5JlAQhdMUBJvz7NsUMxAskQjJVtKhgW/EcsSg+VFRXIqgo4SC++zeuBhegXL79YZVfSTBTA9q23Blxmk7PwNapjsSW4ibg+7pcRv05ikbh1lSAzBlSUX1bcxbHS9OftruWEkxkLKLuBYg3Ouo/wCeM+lGp2AnS11ZnUc/fKfEV5GaKguW1Xh3APvJ+rDRt5z/AN9cs1g3M8gU35d7LfF/qntuwaRTxFjccJT+rptsc2/ZecaekYUm3+j5CN7/AOsnFnSe2hKTplsbeWDvY8qrEacjmmr+HRuRbrERtf3K46Y/FzvbVp5nNKi6t+Cu58e5g+rGNNjSSEJMq7W4m/wrVjDQaQl62MoDvKCSTz7+PESFujrH1cnRRY+p9Hzsfbx4uXROzlE1Uwk7uNIdFSNWs62IMoHZ5AA6txv58L0Ts7msc0kEiUrLHO04EbnkG6w1vhxItiuVrUR0oiq3V5RKykomhfKp7WW3ZFvC2JeydOayJSc8zVo+z68QXIt9+c/RjpemJxTdcpOTTg3DCkaxABv3NNjOPa5JoEY5RR6zZhCjfJFUnFvazokihaiLincspuPxlPisqHT1LVIXvwLdkA/eGwWH5jpqe0Cq8Y2299mwFKdX0wXJKnRp5f7riLNIkVzRsW2HBba3vM2CnSX6xIvZIE5IIG/s0vjiMpldlktfsnRYDc8qXBYiUHqLal0jgMbED+KnwU2b9b5E98d7cu/fEAafsRR7+1Qj0dmlwSvTACF/K3jffTy7uowU4tmq7pYgVHm9/wD+WABTN3Man+LTe3vdPgCSWCTEeKvtb3NTgGYGXro1Rh7y6bW8eMliPmxF0VETJTorBwwiCkW39iixSiym6tbZ7vtbw9c4ILEGWqT0yr4e+xYLC6C9KlhvwRtbn3MeALJdXl1ja7Wt8NTgi8fZnUAb8Rbbe+Q4gDAAKdSVW+hdrc+7hwBJgTFIW21I+kf0ajFX0mpQmosy6Txrr+dwgSoxJwledY1tGukLuR2IMKkGlY6wWGzePn7FRgXoeqA48G+xjT+3T4LWJ0sFsoh8AKmm8PxmLizW5Valmj8D1yMDb/eHxiNfTHmaoOcsaQRcbqNNpMg7J7e+r0WvjUZ3yHTJIKnL+KtOITK3B4Grh8Pq7W0lt/lw40vMvJ7Jez0prk06u7o7efyMS/Fce67fK2DZfTMDccJdwfRjhXWdGCNdgwF/gBxKOKjDeq3SK2w60Da439atjpfjGZ3WP0hScZlG9NMsTx1c8xd01hUWKItdR5QtfbxvjrjeKxl3B4Q3qnRpJLxNNfl7Jpj4SqhichdHtbebGfVPf+tnVanB8OCCQPxQxzbZmeAy5u6RFjK1BMEIsO11sW+fG8emaHRCZK6mWomhmT1QpXjeCDgru0ursnx1A3PjjVPZXpzIq9GU4gJHGpwtgL7xN9WH4u0z6c1GVM6gA2U2W3MnrAx2rkAgPWI+LrBaODYAC3ZtiqZvbQ7m6MqkWIvfTBz+LGRfLNsxXVfQyQEbg29cDC3gN0VjOq2YrwKUjl/FyjEpOzkBs6AXKFkPIfhUuI05eB265VAljGEmFtudzjr6Y9tqQv2yTZBKw8Lg66j68Y0osQjE0ZVmIJQkm1wddNywWKD7iuCQRTnbxHcNiAqf/VuWsHveeUW53vM+L/VPbZp9UdPHoFxw1JBA/iqfHNv2BJpXpEDuz9Qk2PhaqOHpPbRlU9vc27Y+DaqxGnKZq3/ftVIB9cxEEAfgLjrPi53s5GfWqLy7hT+pgxlrY04GmQnmBJsB42q8A6igVCEgX41th79EcQhfoypfPZmYXX1PpBsOfbixcuiD5fJCZJo4ZJ3nK1heEluGbmQFrchYAct998SntpZyI2ppxWNop2mAdluSBx2/6viRapkcUENIiU8nHi4pKuX4h8qnPlePmvheyOdyNbZ1m+5+7ktcWG8j/Tjd6Zx7MVnZyWo0gaFo2BIB/iqbGcezIbLlEeVwcMB16spDMpv7DUnl82F7WdEQHjrQukEcRbgjl26fG2S6gdRbT2u4O5/EPiUPSXavJ3LcY7W5d9LgPUhOqLuw5AQbj0UuCvMD1ZmjdWcwtdCPDhT4i3o/Avr9hYHvW1C3I8WXEqDVR1VvYUXbT2Strfc2I1CzFOrvcXPCYAW96nxamzhsK4mwvxjsv498RYFTyApD2Qto0Nre5pcEqz9mJ9luI2sCOfd1GCjEr11nPLj30239nwSh0q90nheNea+902CiSgCJ999LGwHuanAFQhqhRbSOsC1hz75cSr7EmVmggnaZXaeHWzKPERwi1v8ArnhC9gTabEe2u/hb/acVBYvupAd9Mo3t79FgsLgnq8Y95H9zHgDzOvEkCnbtkn/zOCLoy9aUDfvFt4/fIsAKK/V10hd41+Lu4cFEm3EukC2l7n+jUYImW7VGlbauP5VuXeriBKlhkjiS8qHVGm2n3EOKDmMmoRfdW5fzjAEqrcSna17RL8XagxFrG6TrfK4wvaHWYDp+OTGse2cum1V3epWwv68jJF/94bGZ01fTEqgkuayB6h6VTQ0o4qtZo+82scajPtaBWjraS80s0vGkL8WYSsrdWNwWGx+LC9LOzeTMf4T5iYwPIo/i7vGb8Vx7rucrVY8tpUQAKIlAFuW2OFdZ0LKjMV0aRz8rAcYjSHOOkQJ7PWlAAt/sz43fjGZ3WZmsby5xCEllg01spV4bcT2KI2X3R5D4cdMeGLFKGA02YwLrmctmNBLonYGWPUsh0ufFgcL1SdxunamJG44I9H3rHJu9srNYpJM4aNpUXXQ1AVztpvUjf4jjpj0xdh5dTSU9VTtNPVztNmNJIetjTKlnlWx35bXHoONZX1CA9Ny7dGRwxbvICymxFuE9/wBmJ+Lsz6cwgAqI1haRrkE6rCx44x27cgogGqIdA7SxQ33FjYYqmIAV0MgAsqi5sPawYz7PQ+WDVmItYHTCxFxb7pHhi1YPQ/dQ0qPYKbw9xLjN6Sdm4Ll00m2opcfHS4jWnLxA+qVWAh8mZTe3nOOn9WPbadQJJF7OoymwuP4yfE3wo1MwNRGCGFigPLwamxkUAvRtrFgsDC2244D4LFyP+9uUBuyTUy7239lfF9J7bUP3Kg2HdJ/dQY5thT616Q7EWFBN4C/3ScX0ntoyoGVx5i+/xVWMVpylcHbp32EQxmph7W1/JXljvOnO9nKcFadW5kwrzHvMGMKLKtjNbY2fe3oq8CGoQzVY0hgBUDe3vsOJtYD0aFs9mWwYtl9ICCbWGuPxxcuidm8uWKKaQCgljdo6q0pjsr24mqz82vtt4W2xm9Htq5vw3pphMshiaYakRe0Rx25DElWg5NFBDScOkjaOJZm0xlW7Pap7izdofHvhT/457JR/3hzYbb1kfy8V8dL0zj2NXFXyioJ0hzSNYEbHuafGcSoy1r5RDZUDdVBK8hbg1OLl2S8BTdvM2N7HiL/bp8WdITKaqPe6jgG2/PuJMVYf1JJWnUugcY2I/HSYiK033s35KlvkpcFEWK1PK7qVXgv2tPvU+IsadLC71rIyaVad+0PxkuJVEqXbrOi9gCnn52psZCUwK0zaLAiNrN+SqMU0Y4ZWvZh41HP8s2AHEAkMTFQewm/p00uAtM1oW9MbDV+TqMFNBrVh2GoVHP8ALnBA6YAQw+bhr/Yp8BaUdzI299LeHuKnAGQ+vVF/v/mO/fLiLEwmN8rA4R4qRxi9r6u7iJ+Y/NgB1HajbUtxZtiPRU4qLxn14nK3FHot30eCwKMdygUn2IbfkY8BadBaQtzOvw/nOCCKfXCiwXvVtt77FgKRX6tHe692t7/i4cBaY3EvMdl9viqMRfS7gipDXtecc/xyYDPpJzHBw5S+sIpC2v7SLx+LFSNCNuLVQrfT3q9n03qMRarVAcSEeT3Qtv6afEhWL0qNsqTthfXEG/8ASlxrHtnJt1e1UjeT68i8f94bEjTErHpY8zqTXrrpxl9MZBbVqGvzePhtjUZCyqWllnoWoUCQ8aQDTDwtVqc3Onw3wvS49tTJQT0lzG/hHSG/5PGcviuPbuaL7kp7fxa+O3IY4Xt1nQjFmsFIHw4DjIt8/wCkNrKesxj/APGfHS/GMzusfpBQrW5glPJM8IlrWBlQdoWihO3p8B6TjpjdRjKJoaakp58vehWZIpazL5eHO13UtxL6j5zz+PEtuidx0DgmEhxvwr8th3ZxybZeexCXNJImcJxMuqUDFbhb1K7nG8bqMZdlcpy71Omp0llqWMtdSOvHTTIlpJFAYX5G1wfN4Y1lSB9OowejIvcDi0/IX+9vh+L5GfTmowGnRSdIuQCEBueOuOzlAoQpkhDqFfRAQyrufD9mKtFicGOISXVdAAZVF76Ifqxn2GMst15Gaw7EW4A8KoYtB6JT1pL2W8NLY2H4MuM3ohyIWMd9xqXcfDSYjfpzEKg5jVazaO0+9rkc8dP6ufttBLytqOpDMQTYX9knvtjKiwFTImlNYuoB0jz02IKNqNE1l1EQbkD3iTBV5AF6Y5QCdV6qW+3vrYvqp7bMO1LHrBPcJYeY8KDHNsCpFukQsLesJwL/AM5bF1wntpSADiMRbywP/wArGdNOUr1v/wBoMYNyesQnb+QuOs+Lnez0IPUkZyfYVUAjn3MOMqNOBqkLLtZ+X/F4iyGIF01YLalAqBe3j3kGFiTsPIG150ysBGnqfS2YDdu3HzOGXSzs/AlQpZ3eFoGWpReweJsJbXbkbb+kXGHo9n68zJBK1KFlnWbu08GPHO2JJN8rd+gsredqVjUwpFIZX1qj6wD63tZrm49N98LpfTncoUHpDm/Z7JrU58/Zj9eN3pjHtesRfUiXYD1oTc+HcU+Jj2VbLIVXK4bESIaYDUByHDqfqwvZJwrWxmOvc313l3NvDVTYs6S9kNOikOmzd0Tb8hLik7aNgtcqgo15r8+XfNiKDAAqQ3HEOldvN2KXAXf2CTbUOG/Ln7HU4g3csT10b7utQ3O+3bkxmtBV9klLPp3Cdn+jTnEgBIo6o5H8W66d7g8OoxUMLfrQtb7otb8vgpeL7ii8naNP7FNglq0i6YHbZ+7bs3P4FTgplG9dmy7dY5flsAOnv1dPMI18fe6fAXfaKa/8W1t+fZqcAdfu1SpsOPy/LLiKnKZDTmJhpPdLqQ8n7qH/AJ4CMwppKW6SqQVVif6tT9eEK8gIq08n2Uf3yYoDCqmlQgk90L38O6iwIvKO0/js1iR/OcEERgahLN99X4u9jxAGNT1VPbd0vxd3FgCN2RJtcnWAfNtU4KszjrA8Txltb8bHgEKUgRDS0kvdA6vN3aYqNKNPXyXBOmZD+tnxKqtcvsTsRp4YT4+4OJCsPpYoGUXVtVqmAc+XalxvHtnJr1a6alTzIrIv/wBhsZntr2yp55IM2kljgNUy0NMViB3Y8TwxqcxNPQVDT1tKaiOeJ1qHRknN5NqY7kjYk89sLOCdnchYfwmzPe44NKbH8WcZy+K4/J3FJY0kI29iW3yY897dYIdSt2Ap9Hmwo5WKhkXOM6lkaPTLLG6lZASLQMDceHMc/Pjpb/zE/tWNnFLDV12iokCAVUkgBfQZGEMJVQ3gWNhfG8LwxVYFYtRVFRxhVT11DJPHPJxGiOqRQur4B474uRG8Yz1c6Tzj5ke9tjk2yukdvVN+KCYjl1ZqCi508dSfjx0x+LGUKZVTUMT0/UJVmvX0jyFJjKNPFkC7ncHTa4PLGstkV6eLbosdFmYy04C25diQYn4u0z6cvHGY6iMR3JFwRpuR36nHb05ew4URZotJMrNFAGUqRpsfnxVo8K3SMIpciNSQRyOiHGUGyyNmzLUALiNCQR4ioufmXC1qcj0ABqFYKCeDS3FvRLiXonZ2EoxQhTclGKlTb/VOWI05dECZnWEhtlnYBl5+Ub46f1c/bYItUOTqDNK1ltv7JNvjC1eE9qNlBXyLC23OmvgJdfWTMBoPAOw8e5lwVZrHpjlI0n7qlsPyzYs6T23YlAoE5ewL5X4mHHNstVXbpJpUBb0NR2vP64bF9J7akoUcSxG5fbzb1WI05DMjq/7QYyq86iHc/wAhcdZ8XO9n4xekQkf6uN/D2CH6sYbHlVQ8tj5Wsm//ABeID0zN1482JnW4/KU+FZL5GxjzyQRk75bTWAHLtx4uXS49j0cFAtfM8Tv1/RUmVdZvyk9qRsOW9974zvg9tqs4ssU/VCUqC/ds22luON/nwi0rQVAShMs1RDIXkbtxJoQjTARZbbCwxnKyXS4zcYOT6G6T5sUPlVse3n9cbH58dbeGJ2PUrfKJVW1+pkkX5+t4fqxItTlbA5RSqTpJplFr+5qhhl2enq9VNTG3ktxb7+PapcIyz2YClYXAtEf7mb6saJ2eZV68PJB45+Pvz9eIodPpaGP2rcJO1vv3dPgCMAsUupt9Djf+RVYg6HJ47yzOT5NTYNf3w/QcYyrUAzEjUpNt1WxJ9xT4KVkXsyjXvZ97+5qsVmGlAFUgv9/vqv7+v14KWiQdUjvJc8NPHb2OD6sCxNQO7kXVvpf+zVYAqbVg7W7T+B9+X68AOE+t17X3pe1+Tg+rAEmC6JLnV2X3/o1OC0wp9eLrOrvRbzDvkwPYdJpMMPmMS3N+fdw4h7aGeRqsSSK7MLyJoY77JPbExpSiAcddTG3FG1/fY/rxpC6aFp1JP3of3UeCrz2GvtHdn2+OpwReNiapbMNPFWw/KQ4gFf1mBrPsQuAfe48Fo0zsWl7endwfTvU4JU67yrY/fVP62H68VSkB7BKkqvAAsR72mCNanGiovc7yLtfzTy/XjNrQVYG6qpjLE6Ra/h2YcTFK57pYScpexVCs8O3n7c2OmPbN6bFWQahLnT67j5/zjGZ7a9xlSJNNnEi0kqxTtQQaHI1Ads+HjtfbxxYntFCyNLl7x1UVRqkbSY4jEFHV2FtPteXLFvSzs5kTa+lFfp2JjpO1+TxnL4mPyd3TgrFGHNyFAvyHLHnvbqI+rTZTaxxRyFPGP4QdIL/x8J8nx4DY3eon9qzM5pqKav4eZIZIHqnAQtpBfgQlQT4C9hf046Tjpi6L0MFLBJSxUUPAVa+gMkYk4ipKWkLAN42vb4sLbZdk7dPIh6sLDSBEb7n+LbHHbbGz/hpnAadS8S5fWF0W92UTqTb4sdMemMuyeVtStURmjNFp67RjVRqVjI40mm4PttNr/BjWVvSYidN40PR8LcqDNT3NifaybYfi7X8nTkYxxKm7HhsGJBIPavOuO7iFThZKyBSgjPCgAsCQbHBR1BNPGzjRaNSCAbt2IcTQYy8Bc0BkBUNGmkgHf10MZJTNEiisisR7DTWbw++jCtQ5AFMUQ0i/YGrV6KU4npXLuwfMKsFjfvl1E3AHax0/q5+2y9jVNsQeM3bAJJ72XGVs5ViLdgk6h2LHzfc2IJchaJ1K3vC1j+Rm+rBRhZeluUat265Lvf344s6SdtuGzUqs4uOAvxdzFjlGy9WP+8gvy6jU2A2/1hsX0ntryqNcgIvZmG38qpxGnH5mNPT+FxuDPBYA+4XHXG/8ud7NRKpogvK0IYb+PAjxlo7NbiTcxYybeferxCVMID1gIOkcZbHz9umxaQHJXEedyXNx6lQcj460+rC9E7OUlbSy53UUcUaLKnWCRwrOOzLqJf2wO1h4WxL0Ttq5nGstNURTTmCN3F5F2KDjR7/PiRapDBEKSZJxO7M7MwnfVJGeHHsT44zlN3lccrI5vLdK9Ls3U3BWrQfB65W37cdbP+WJeRakf6Jl4h1K1GxBHh62X6sZx7i1GRAHKKS7axwV3HnvUjFy7J0PmbLeFmOs6tjq5D1qcIVmtEUhcOyteNrHVcDu6j6sVIbDh69HkIfv7Lv7+v14AcJVII5GGtREvZ1bHuYPqxFozXCyqx7J4lhf0VeCenR9H9N5A79gyXQDz8QWxzybxhXNU7qNip0cPbf3qL6sWFLMgIcs1h2wRq3/ANaxWYYj7VWug9njfB9+i+vBQo2vRDRy4Kczv7FD9WBQpxqMvatYvff+d4BmAaqgHUoXjLsT55YvrwAhZaKIuTbgDbz9zH9WIQaY24qg7dsEf+aGKVdHZqyMeJmW5/Kw/Xgbep2QU1JoSzCO7HwN40P7MRWvWsJDURcHiO0bhWv2lbVNb5/24kmlrKhOqrVSQSJRe+33yD68aSFFu1Ktrt3PO/LuV+rBB39nkDavKcc+XbqMBMRPFTcMS6H9OnxCh6r0gI8oRX9HsK/Vir6MTgidtdi2tv7VRiIgC0sbv5WtfH3dP9eKqka2p+0Rp4Pz8L/lgNSGPtCx+/f/AMhvrxmtATdqlJA1aYvP73HiRK5vpgLZRKSdhPFy/GzY3h2zW1mLDiAMAfXMdv8AzGM32rHq6V6jNTAkzQcWhgCzJzQiXmPTjU6SzleNnafL2mqqqq1SsQ9RHokHcPswxfROxskOjpNW79nRSb/0MZvxXHt3dGuinjFwbqPHHC9u0FfQQOMAR4c8EcvTsF6QZ+p5tLA1wdvYG+rGrf8AmM/2rHztaV6xlrhriNS5AALAvwIdOoDfTe17b2x1x6YoVHLTNUUy0kcCiKty+OUxRmNHkBfUQvhufmvhSOpbak32JjPj7hscvbow+kTpHmwedDJGMurC6g6Sy8ZSRf043jvXDN7Bp5oZOrJBabhVlIxfgcE2MzFVK25qPHFu0xV6aSf6BjuSQKimJsfRJh+PtM+nHK7GqR2JN2NhqJt36Y7xyRTgrVwE2lJigOkMbjtYqjR6BTxaiJBw1bTcgju4sTaUfLwTmZAZnPDU23H+tDEWG6MhamHWyuGipwEDXI7Um+I1B4UYJHezAqhNuQ7NLiK5lQ3qhWm90BnuL/ysdL1HP22XLLVSBGAAlIsTz76TbGVt5VhYB4yoITsG1/5tgL7iB11gdw3P8VPiKKdJ6VZPpGn15ICNXvpxfTPttRMRQR2K6uAD+oT6scnQCpsvSMG170NX/ftjXoa0pvNKPM7/AAeVU4yrjczYHp3CCmluPTkn+gmOuPxc72epSerqCpYmBbHVy7hMZ9LDklzUTqQW7Ugv8dXifsiIb9YRg1yZIzt4dqk+vFJQsla2esN98qS/xSL9WGXxXHtoU9bB/CCqoUDiQNP2expXaUlh7a5uAb+bE9EvLQzXgtQ1Iqg7Qkd4EO5XiRXt8RxmVq9Fcn6s2XzmkMRgLPYRM5S/CS9tW/h44uROmNRAp04zq7EXql28/rlMdL8XP2LLf1NkG/3KdVuX3M31YxO2q90ZbVlNIoZdkAsfDt1A+nGsuydD1VmijcLuFJNz73SnGYtZkq2EqjUOywNz7iqGNMmoxxJ4+GQnei5Y3veaP68ACEAUQCLZuB5+fcJ9WBactqllEY9s43PuqrEG7kDskgYeU5S/wGSP68Yybx4Xz8P1UOYRFdHZRe4Hcry+TExpWaR3sg8dbjl7qqGNMmIjrkjYqQVkRSfAniU5+WxwUvdloiTYsKfc/kV/dwWh1Dqa6VBpVldrG9wbvUj5e1ggsD97GxvqMif3lP8AXgImUpSRiwDdWtf8j/7cAWW5ndTsxdwf69SMBEMmueIm69tNv6dMcBaIOaWEkdlY+Y/E/wDtwXTSzA6KhmRnVu0VYbEd5L9eItItqNRDUSkHrDLNdfTJT3xUKEWphp5cI3t+Jb6sEMOpapdRuOK397P9eBpSmOp4zbSoZP8A+NgtVAC0j2tbgH+6b93A9GZAXqWI8nisDf8AGTfXgiIm3Q7e01X/AOGwXahb1u+hR7Edj+Kk/dxKNeIhJh5XsrX9Hrhf3sZaKzako3K8+Dvf8Wv1YsK5rpcT6kVR9sJk+D2aXGse3O9NatPeag1/XEZIP84T68Rtm1UK1WatA8hjEtBGrHna03h6cWdMew8vhMMlC3Hq5jLPrvVJplHcOLN8mLequPZrJzo6SVvNe6pDv/IxL8VndfQKYjgx3sToA+bHn9u06XbcDw+PA05SmN+kWfghj3kGwPI8B8avwjE+VZ2Y1L0da8iRzSGWZ4FWD2Ua4IVunuh4Y3jjuM0qlTNNWq00dRE619AgWoAEhClgGYDxbn488MpoldNK2qm3Fu6JsPDu3xz9tsnpA5gzhZI1DMKGrYBySGIlQ2+D68dMbwxl2TpJ6iSqR6imrqdzV0ZPXGJdgZ3P9UXsPQMaqY9rdNWPqEDEWV1qKazLz++A4n4+1z6cdDYzho1KHWQSCbezJ9GPRI4hU21bGC2gGOEknx7eCiq1qaPQCrcIXOoi/dx/VjKU5QknNSgIjvEAWJI/1oYVTmXppq4QCqvw6chtXPvJNvhxFg0TakiN9LBFu1+fYpcT005mWxziv0t2x1garbe2x09ObYL3qWsb9+bG/vz4yKwEALqbki8zbwpsFGklaaGTjOWdoSAxN/vU4+jEVLH/AL15KzNcdde353F9J7baN6yXXbTwAR+YGOboDW6f4QjbbqdcCPgmc4eka7qTM+wA4rD9ZUfXiK4vNif4dU5uCA9Lz/kJjrj8XO9nKX2Ae0tT/wCQPqxL01GlNdqyUBNPeOtz49qqxPROw6ftLCym20ZNza/3JywQLLds7CqgUepTG/ibP/ywy+KyctFcxjPSU5eYpkK1FQbgKIydM1ze1yx1AW9GM2cHto1bwRUE0lQheBF1SJ+EoMBIxFpPLKiGehqGgZHA1BpI4hGrHgXuEHLl82GROmPGVXpvnYZvv4a/m7+PHS/FidjTn1gb7Xp2UEHn3Ew+jGZ21l0p0bB9T6AMBYhRcch30n72LkY9DzqfU8/h9XY7H3imP0YkWkXHbkWo1e3C2tfnVDGmRo3LzwFzqs6W2ttxac/Tgugb3oFubqKcj0/c5/dwSxoaQ0zbLbjMOe/stR9eIum1kUbNFC5GlWCWF9764MYtbxGzJOJkUhMt+BTsSnwxEbYzKVmEXqpBYMOK/j77N+9jbKaMs7RhW2co9vSOqnA0Xb7iYH+Ja3n9hk/dwKK6Ka1wqC7Tm+1r99KP8WADTtoMVgdPYP8A+qcIQzmMfCpUFw2qmPh71L9WAsw1Vbb3vM3P8dIP8WAHSnaEnmQjH/8AFOA0svg10MirpK8IhgeeyOB84xmqZqk1uSx7Rk0n45T9eEWsaLlGzNsAn7KY40ypKumBxy7th+qnH+HAHYeu9wLcba3j3zfvYAEXZiiv7VEPP3NMcFq8oZoXHZuI2Fvyc4/w4Bm2qtBO3ff53/uxAGIgU6FxyjQ7fi4D9GCLKu8qNcdlwPkqBhVaxNnjbUB2y36cJ+nGWikw1U7I9h3Z+aNv3cBgdNoUXJ67w7QI25d+/wBeN43ljLo9XDVGzDYcRHv+Vh+vEnbUIZhHBLnLRVMvV4JKHhyS28gCo54uN4ZvakMBiq6JWeodTVKRx5Vlf2KQbsPgxbzKTtehcrnVWfDg0Z1D4MS9E7fQqUEU0d/wR6fDHnrt6EIvv/8A3iDmaYg9I8+0+L052PvD43fjGf7VjZ3PU01ck1HHxp+udiPVbXqghBF/DYnfw546YThjJWnjeOKgjkpXpkhqqBIeJMsrOgkexLLsdyRt5sW6u1joGB6u2snaMgWPMaHxybZ2eyv6sqYVIqFoavh2F9xKlvh3xvGcMZEqfiMYXKxxxmrpNAjn4wL9YfX2jv5XgeVrY1SVPTFyMhLMCAs9NyP4zE/H2fk6cTEza11E6b7qDse9jx3rist0q6clwVMUNgDe3eYqryPrhi1r3fDAVVaw9iTxxgM0BHqnqk76MR3I1WP3UMWh2kdzWw6b24cChQ2/sz4iyixv62jB3BRTba/sdNiRrbnpXJzau1EMq9aAUne1m2x0/q5/bVC+un09pTPsb224zYyryBgFJutkTsFtx2afAWAC08hAO8bCx8O7qMRUzkr0myVk8a57i/vq41Ok9tqG3UCST7ByJ2HcN9WOTpVMzP8A3gS9mbquYf3j7YeqjYOkVbAD78wsfDvZvrxGnE5sSemtKb9rVSWPh5CfLjrj8XK9n0ASmvcMeDyB94Y/RjKw/Kb5hKvMmd7AfjKj68Ks7DpWUxU5lDHu0NgfcUv1YJ7Uof8A6gIOm3qXN8zvhfis7a/Wqr1f6vLSS9X61KiTFrx37w7LbZt7X8RjOuCXk3VTGKgkl4azKsXEMZ5PtTm2EW9Fculllpqlpkqo2INxUoFkI6u/MD/qwxMicsOQlenGdEhRd7geJ72LHW9MezLR3gmsNY0MGHm7up+rGJ21Q+iV/U6gEYI7Sizc/ugfXi5dpiYn1DLuwo1GlO1v91iP0Yy1We6lqyTQAbykHV495UfXjbKYZCksLKTzj5j+anEqx5OzSsEPa4DD9TN+7gtPot6/a+o1B9H39/3sRI6PKQ0dPAWTchWA5i3rfkcc723OhZY0MLI8XEUxnUo8Bw5BtiTtaxTGwryrf7RZTbmONz/Sxtig07Wp0Jbt8NLfm6Y/RiqvW6WSXhqyjhv5X8ipH0YIsBevOoWJn8Px4/ewIFSWKRX2LJH/AHdOfowDubxloItrDgMv6FQMSLQ9QNUqkX7/AG29/T97FQCBjwYb7AxIf1cH7uCugyldMrFU1FDe3nHfAjHPJqcoqdJmc8gZhYW5d9H9eLiljFC8OAatl4QN/gji/dxpETKDxFHux/8AsjFKLEA1YukffVN/y0X72CARkmkUj+JB5e9R/u4gYmW0kqWtcOP/ANkYKJHbrKv5WqVfDl3sJ/xYBYgJRbb9z8HKFf3cVDNKPXLDYgyMu/4ycfTiVT8p9bxtdT2L/oxH6MZjQUsez+fSw/RmGAxemyGXJqwRgljGTptz71T/AIsaw7YynC9bZqF3Q3PDVrfmDhO19Fc1SEZ6q1Xah6pOsgF9lE+97YuPSWcg0sNOkuXNSRUsGurh4kdM+uMNaRbj0HnjW+Ek5iaWy55OoFmako229DKMZ9L7r6BQNajhN73jU8/Rjz129DsbAaQW+DEHM07AdI89UeL03jb7y+N2f8xP7VlZ5xuvKaVoonWqLapjeNUFPEX1Ab206r46YsWA0hV4aAxyUxput0PVhTXCLHxHAtq3Bvfni32kb7Panax2EZsLXB7EmOMdGb0hieXNECMI70dYhe4BUmVAD8XP4sdcemMuwUjmSZDNU1U0jVdINNTCsTrpqHFwo8CbkHx54UD6ZOY8i1gqQk9MLHlzkGL+LtM+nIUoYVCmOQKbv5RAAHFjx3rl7DhA63CUcBgkPiN+8tiwoyACmQRXSQQ3cuwCjul5ebGLFFo1DZi/DBVhGx7TC1usj6cKHqQ3zGILfUEp78vCdxtiVREYGNLgKeEpv+Spr4i2OeqSGziuLkrKrVAvceGq2On9WGsWHXrm4LT7HV78cZVRDeNC+vUUQgm38XTnfAGI7qTXbyHF78+xU4iztaouvSLJjq26+2/9NPrxqdJ7bK3NBZiFtCdx+Il+rHJ0oea7Z/EynY0+YrY/ymOHqs+42rg1TE9kdYPP8c/14jftxGdKB0to2Vje9HsOXkJjrj8XK9nmI6swS4HBOzc/YZvqxm9LGnDIprmO9zUG5895pR/iwpAI/uaC21qePw96pvqxFvaKOJB0h7BufU2pWx2v3kmGU4Me2vqnPSVw8dMqmqZUcyESvGGbknIgMxGrnvjOuF9mJeMtIer6TOIu7BG+rRTkD5bYbW9FKAyGiqI5RANIbSYZTIhBhmPlH03HzYXsxYNSAvTnOTY23N/6URx0/qx7aMllDKLA9oEjlyqxjMWg9DtXqZQtMSzCTyib/wCsx/Xi5dpiblU+pxMhYsKVrMP5qPqxlWdOw9UWWRWK8c2Nh4Tyj/FjaaDT7njd1IThowNvMlKcSifKgZfaqrDa38VUj6MSLs/Tgy1RPaC9Y38479f3sWkdBlClssjk16RGq2W/gUgO2OVbhqXUlPLp7LKj2IG/kzfViRWfXpJLJS1BsV4scZdfE8WIj47fsxuM1kppWgDbHuV3/IRH/DioZKs8c8aHUsfFfccrmqU4ghDerVrbmZT+uh/exSdg0nZghPlDhre/h3Kfu4DUzgAxQW22df78YzFpOE66hGBJPFVuXvlOfpxpFacWpE0jtcEeHvI/dxFdFSDydB7QkbST5+JMPpxi8tThbMxpEMugAvGjsPTxIsMaVhVcWinfT5QiYfq3/cxtmvSIOssCLDiEfrJx9OKUKnc8SNjz1Jy+Gmb6cEQingaWH3k8h7y/7uIp2pANWwtzkI5e+S/vYAEbaVjdez5Bv/5ZsBSdWWibWrWETAenuph/hwDlNvWEsfKmvt+O/wDdhQV1/wBHQnVtwTe/4pfqxlpaRBre5NtTD4e1MPpwGP0nZ1yaqkjbSwp3YH44T9ONYds5BTtxMkaR7/cerYe9RH/Dh7PWlc24K53SvUg8ExVYkA8V16j82Lj0ZdkaMQK0D0/UVTrtObUVygHEYC9+RseWLeqnuDIoTPe1exy+I7D8GVcT+p7d7lKhaKMW5KBjz5du0NNdrHfliaHNQq/8Ic9u4Hap7aefsL7H4cdLf+YzPlWJniVb1OmgcRVPWSVcgKotTxFr7ctN7i2OmOvbGWwaGOdKaikqJaOQTVtE0TUYAi4YlYCwt6D8uGRHSOTwG07ARk3v7iTHJ0ZPSZw2YgEFx1Cv5Wv5a3+bHTDpjLspTz0M82qgMbxiqoxeMuSAJ2Cg6j5QHO22LZwkvK/TYK2QMHF14tPyIHjL44fi+Rn05BgI5+9JAUvpAtvaWP6sdvTkHEW67AJNWjTEtgB/GYvpTLoBTx8cMkZhsGUAlu6H1YlB6dQK4AsVXQ9h/wASN8KG6J9OYRhidOmECw8esOMZqpjJFDEWPZEIC8r+wwHEWMCqY+q1cik6OJUsLW52cY6emPbTsGqSu1jMBb8sPrxPSqr7ChXVbhL4+HChxAzZmSS3tQ4+A2qsSk7RN2c9yix1evtx5t4jizpPbcPZo3UXB4J283c1HL5Mc3ULNVBz+m1G54eY2A+AnfD1Wfca25qzsbdY2H5f/niX9Ne64vPyG6VUba7Dh0Zt8SY64/FzvbQYd0xsu0bDce91P1YjUPqQ2YgEEE1A5D/eB9eM0kAjk1UMevcrAu1veIfqwL2iEX6Rqrf7BWbj0SS4ZdE7bCQ1n8Ji71bdUNaxWn4ZYXuASX5A3YdnxxN8LDcqM9BJw2s7U9kN7WPCgsb+GMr6KUEMqLWJVTGpk1kM/B4W/CnB7PjuDv488XIx7YFcLdNs3ADbQsb25dmM88dP6MTutd4yXcbG8jrcfyqoYxO1pDobZsrpAqkIZdgR7/AfpxrPsx6aBI9T5OGjL62Ze0P93cfRjKkCrDMZlYLfrPm/3j/njW0peA6aNGUaiIQdP5GD6sVB3C9tUsSWe4tt/rQxmLTOXqprEZb6zKLrb32D68SkdNlwiEKLInZaNTZRuO5j5fJ82OeTY776w43s3L8vizoZsMfFJQuU1yhwvgWU05X5z8+NQZAU9TO1rU/K3+7n93FZNPp66+7EcZlIAtccWoB/tYERGF6wmltg6lTp2YaqU4CsMfrWOwK9jze8v9WJehqZrCVMCsuk8QqR4eyyD/FiYrWXDsyMbWUIeXopTjSCxLaADbyCP1cv7uIroygWbQvLjG3wmVvrxzbUqw0uUyvIhFRAiJy530HCJWVmkPdTrpGrTIP/ANgY3EoGomt2ue/ty9//APdioWjNoUJ9qiG/5OA/4cVDEad5osN9a8+XZqR9GIsNzhhVx8m71Tb4ZE/fwWs+FrUylbN3Sm35KH93BF5Rq4iA3btKf/yVwDVKwFQj9n2Xze+Qn6cS1YalUJTIgTZUK7/ipPqxKqzLea5/jbfrP/diIys7UPkNYvM9Ufa3vcR+jGsezOcEKciTo4hXmaHl+Qb93Gr2iucBfVCjJGsFapSh2veJWwx6KUapp5aYGK68OWGVYmp+Dwo+KtlP4Xjvi8oNVIy52mmwvQTqRf8ABlP1Yno9u7yjS1IoAsdwfPzOOGXbtDbq4UcM6j7rEHPUwJ6R543P7mNgN/Ynxq/GM/2rFzuOrqK0LQMkdStSZFeUdlAKeIkn0WvcenHTCTXLORakY8Cl1tStEaugaHqkZSPhmRiLK243Jxbz0R0TgLA5XccNgBb3Et8cm2V0hNsyDAFgKKvuPQGU2xvHpjItDXR1kwan1gR1VKOG9OIigNSxC2GxCiwB8eeNWe0xu1+l1jkUnK/Ep7lluB2pRifj+S/k6cWiPxiY1DLqcEEX++RnHdxehIXMIuCSw0Q31KL+y4elFhJWnDRrqfhagpXbaHEBae4zOWxseDKSLbD1wMKHKRr5rFYEsEh2I2+6mH04l6F0iPVEtq1cAXBG/sER+jEWsOuTTnNcE1AmSoutrbdvf046f1Z9tRDapCuOU4vtz75PrxPSghZEgGokdwBY8/YY/qxA7Js8nnLNy8d6ofTiEBqSPVfKWPZIrAR5vvJxZ0e3QMD1V7cuE1ifxdTyxzdA81UnPqTT/F5gLn+ThOqntsAHrak8+sj+/T68RfbhukkZPSiiKEELFSEm3oXHXH4ud7ajr7IqC/Ydb+Hk1eMtQ4gJrl3ueMCT+Xi+vBSqL6wS3+zgn09wn1YJRIVA6UIPHqlcLeHsk2JejHtsRQxjpMzxytxZKzU6mp0qjDRpHC9sSCTq8MT0vsWVY2y+QO9g1MQxt5IMMe9vixlfSMrTR1heJUOvZUGeZZWUCOcDtLta1iPhxaYuazAH+G+anV2jSE8vekP0Y6f0c/bYeMSVTKWsVnYWsRfvakYxO2vTN6GlvUen1oEPGcWt79T4uXZj02JfuKTX/EN/cz/ViKz6hB6qyGXsq1QdJO9/XKYsZrPQDqEbG6r1cdrR7wn1Yqw8yXndHGm0jlW0e7qRgpjLYnqK6nVTYs4a9tz2qY4zej26ahvHHCCL9hBddr90PqxxydIPJKrVDao9AcaQRvqPefXiY5+jTLdVXht2WW55/wDDY6xhm5iqqs7pGY45ImZQfDuJgbfGMaQTlXtdhvM29uffSD6cBMbmWmgmCApFGiMwHnWmYfNfEVaH2Fbi4Ust/wAnN9WF6GznKjrkJPjN/nL+9jGNXJz8O8SsT2hGv93Tn6MdGTYWysoPkh/mWpxm9LG/JvMAW2MoO498X68YnbdWp2FRRtSSE6pYk0P8CKcDtn1S3M6kDy3G/wDLmH04uLN7Zt/XSbbGVW3PvsJ/xY2gdIhliWCNlBlhA38/BW39nAOwx6pmGkjvGFx+MqF+nEpDDrdomvv3ZP8AWg+vElarHZQtGQTa0B+PuW/dxpkzEuqtIGojjEH89MPpwBqABz7ndv0YGxi1qHZhaLTuOY/RmGAhe08dx7dWv5+3H9eGys3M1ZslqVQCzUj3P5JfqxcezLpmZVaXo/SbDejCn81MPoxu9sTpFfvUZPIxBJkfe3npkwhWVJmkOZ01XIktY7qoltPYrEOLH2EbxW+NVNtLNP8A6ip2vs0Fau/oZjjM6a9u3yVg1J6dbePpOOGTrD7E2BINvP58ZVzcUHD6QZzMssTNIYA0YvqQCNrE/D4fBjd5xjPusfOY3lq40p5BBUSVqLHMQSEJgiF7cjt4HbfG8GKCiFIKafi1AMldSBIp4FhMapKVFlGwU8x8eNa7Z+m/Oo4bktfsMLAc+xLjk6srpBJozSJrK2mkrzYjZgCp+TG8JuaYyuqSSslrZhLUUtXTutRSKDUsWZh1piCDYdkXIHoGNWeklF6bj/QEusC3Fp9rXHly4n4/kZ9ONKgTcN7J2n5i/wB8jx3clafT11BL2Rw49JA9954qruxWjI0ixgsDbfaHwxKD3ArD2SLwzHdT/H4lD1PrGZwEAhbR7+f12314l6Ho1JotwdC04Ja3jwE+rEqsas7Gf16bsDNUXGnydm5Y6T4p9tGNgtQAUuDMN7cu9ixPQHZTTrcFvW99xvfgKfoxA5Ip4ri1wHccjt26jEClR93ZQbaj1xTcfBBizo9uma/BkU3tocAf0KrHN0BzMWzujUWsUzDbz9jFnSfTYjf11Yg/dAPZXkONH9eMLXDdKyw6RUJIt3FLuPgGO2Pxc78ms4BLgLpW77/+axmtTseHtVMdyFHFU2/K0/14KFp9YJr1KBT25f7ufqwSrxknpTAyjs9WzBQfTrlwvxSdtB1o26VosiQrVmrWzFWMntLaWHZ02vcHfGZ00baNEoJZJ2aSPqrahyJHAUnfEX0BkclGyVBy5YBTll08KJo15T2uG3va1z4nCmLBzRv++Ff2Va9ESWH83XG/6Mf2bJ7Nf5KsoqSLkbjv5/rxmL6ZnRFxHlEBVxKpme5sefEpueLl2Y9NnsdWZVZTqhIP5upxIpOuOrNE0R69Utypvt65ixYzWXsuXRAHW3V/J83cf8sVYf4tq2QcJWJkZbG+x40/14hDnR9dVbA/4LR3FvP1XEy6ajccO9LYdk8K4H5E/VjnZuNTtRCWd4i2kq7NoP8ALf58cPbYK65YLyt2lBI1m17rD+7jrjlyzZC1WjT5bPZ9qZJG0HmFKTqfi5HHVkDUWqwx5cfl+XH14rL2W6Wp4YzIYoniUMR+KpyPnGJVPU8DSwhVIB1vux5dmcYlqyNau7dRAqkW4mr9bHjM7XLpzaEmEOOXCBtf3iL6sbYaUEXFnaO5Xdx6edSMStRrkjiqeZEq/H24sc4t7eoZo0anEm1gGUnw7vBYVlgMVSysWY8RiDz7JlY/4saiXtmPZZIDse1H/apsajICkimUt7WLbfye4f6sUjbEAirrX1rI+sEeYzN9LYxa1oGb2OB2F+7BH6nCJemVVLpp2uBvE4H5ucfRjaUxAgNaD5S8a4Hm9cH97AHolKwtJsOGu4v7zH9WMVqfs3JZrK2x4nL+lLiFDRnLIbarFdr8vYcClawXy+ddP3iQWP4p/qxrHsy6Y3R6zZDQDbt06ix/LjG72zFKs2jyMryaeP56YYSJSFRWx1uUzyxFyFpX0RtDoMKAx9nVyYagTf04v6TTQzex6QUJUHtddUj4Vv8ATiTpb3HZdH7dW84P144ZOuLTbUPJNh6cZacvBb+E+eXt/qtwB72+N34xmfKsLpLFT1M8cVXK1NTtVoHkXYreCL5N7b+GOmF+mMolKSOCFC/HSWaspDKk04ndCJio7fiCNx5r4ttSN+ZLxS2sOy3h7mbHJ0ZPSRSuYRaBrPU68gc9+wf2/tx0w1pjLsuTUrdaqkmpmerp5bSzcUlmqQWsfBQRsp5Yt0kT01JXI5RoDjjU/ZtzAklxPx9rn04uJisrCILKAHvcG4vJHfHeuKITasjtGrXjjJ1XsO9w9FFXs04Ng3cbj8ib4VTC6BVuV0k8Oe677d8CMSwh6Elc3iGobKgKWP8AthxL0qACKA2NyYPJt/u4xCsivIXpBUglCRNUEx6Te9mvf4cdP6s3s6hLVG6aTxENhf8AjIMZVVgFpNmPsG45X7g/VgHuw9RYgR2kIJJJ++z/AF4hCVUCKvKTyAq07Q82inxZ0e3UTDu5OzfZ/D3NXjm6F8zIOdUAtz6+OXLuh9eE6rPuNiNSKtCouxnXUR5uNDjLdcR0sRj0goQsbMRS0+w8PTjth055dtRh64kAIO7gX8O1VYysMwG1RC2zMJFufylNt8+Bey4bVQuD2h1fe5/3d/qwKIgb+FEBCrfg5gLf0pMTL4pO2zBNWvngjFKOrisR9fHA/iyex7ax9t4XOJ6aWncdQkiGlm6o3Z8/ccvmxF9JoHqJZqh6qnqqeRmQmOZ1a202y25KL7A74XpI5fM7r0wrVBOr1OO3ifW4xuX/AIS/KtyMH1RJJH3SbD8vLjM7PTJ6HorZKiaWjJeXkfdU++NZmDSQ8BZvDu2H6FSMcpdN6WzgN1+F9VtTmzf8TDjpjdsVi2ZKFXW69xsfyDYqymwo9UXPL1wdTefv5sGZ21ujsZacMSAVMPa8DcUv1YzleG522lPcW22i5/kXxz9LBJ4FepOmNGbik/D3jYxljubjUvomKoUySFqQydkeUDuNMdv+vRjM4q0tWRR01bLHOH4cgsyhu2oKVF/px2xvDnSwXTmIUEuRU2B8/fx742nsKlBanhHvK2N/eYcB0lKvEhd9Gglzy5X74f8AXw453tuCVXZmphax4g8ffIsMexzhbTRxk/xF/wBQv1Y2y0qO/qibm12f+8qcZy6WdtH75FdyQxW/hvqhxlr2qJNFP2/Y2j7Xo7t8RTOYC88T6SbGNC9+Z174sSsSUHRT2sNo7kn+b43GSbi0LgDT3TDnz7qf6sWsuhMaOBNC2hlqBGyX98Xf/rz451snMrrTxMPJ4Xn59iO37DiwpTNEsj2BvpkG/m01GNJekUpHqgXW9uJc7+/p9eKCUylaVu0+ybn8gPqxilaTFS9wADxtP6yTEaLw9mzat9t7+5hwQGrUGkm/EuoP5OXFx7L0wei5PqDlpudXDXtf05cdL2zj0HU3aDIQ3lcem3v7xhEpKorJKvJZ3lXMIy9I+lZl7myooJjPmNr4aNtHNSTnuWNvfi1IuPTEPrxJ1S+nW9GWY0VyPMN/gBxyz7dsWoyn8DXjmrmKdv8AvRnlhdyKU7+fhvjpfhGfbE6TClaWP1R+5jVxic35JwIr46YdcMZUOCOjp6CKKihooZVr6UzCkkZ4zebs7k89Nr2xbvdSOkmJ4cjEdrQ3jYHszY4ujK6RO8eYxPHdXFHXlT6RpI+jHTD2zl2RiFTHq63QR0LtUUzlEk1B2apBZrX2JPtfC2NXTPsXpyxXo7UkNoZZISCTy7cuJ+L5GfTi3QLUOblBdt9xftR49DkgEmvgKgJ2YiOe/e4FEO1ITtbg+HP2E4yvowhDV0h0qoEU/a3Orv8AFqQ9AP8AS0IW4NlBa5P+uHGculQbijuDsabnb/dxiVax611TP62wjbVNPZ97+35HHT+rPs/EzmVSDqIdQSBb29PjKqK2qjNl1WgO5v4QtgQ+1ussq2YcYk7cu+l+vEIRrgQ+Vciesxna+3dwYs6p7dVVdpZQDdTr2sfNV45uhbMSGznLeYu1Ztbn3K4Tqs+2tT36ynaC2lW23PvafGK04rpbqXOaJlbT63pjYXvzOO2HVc8u2y3aqX1MEAd1ufxlVviNrQAJLCp0rdk5H3dLibZyBVNVCwBtanJ/USYQF026UUyXtaLMBqHPypMW9Lj20D1pM/gaOWjMfGTZ+1OUDRhtLW2XVa45+OMzpTcwBy2Q2KP1Vl1Hz9X54kX09lkU8c1QKt6dpeIutoYmju3faib8yT48vNhkRzGauP4WVgVTf1PN2J3t1YWxuT/mM/2rdDf6QAIuvWTv/wAQ/wBeM+z0x+hu2UIb6rSy9rz9qnxrIxarsGSbfVZX+Ls1OON7b3wDWlTVxa91WUhR5vXEGNYX0zkylW2XjVdxwNgDy9btjokO79eIYau/IC/l5cKk7a3RsaYUJ96so8fubHPJuNdQOAbXtwr28fYpMZ9NezjOetAkn2bYflThOgtmBSahkPk9zZz+F2IiNvjxJjyW6Yla/Bq+OrveN3YAm57PWrc/5OOkmmd7MVmuSrgqAnDiZ0QHlfvYiP0dviwCmX2amjvZbRpcfkosKOjpkKo41bPcix/HY51qDsLOtvJ1r/bjwna1zBZvU2Jh5Ip+f5E/VjpGGpQAdf5b8V9XwcWoxnLpY0La9MilVdSilfPvDv8AMMZjQDBVhuV1KE5efu5MEOT6uFGsZ4iNWg7+A174TtfTGrPueO99OhPi7MONRmlZY7o6sbgo4H5uoxpI6GiRWqGhdSRqaXUOasGTHK9twlIjJS2ZlZRH5/ehghPNN2nUt/Gcj/OMdIlRQ363cg6dfP8ALQ4XpIOOJDl6p5VoLN6O6bGGjZOpyb6dU+3n9kbBaBEpWBO0fJW4v7mHBFasWgm8O7k/sTYuPZemD0TI9QstCBtOkczv7LJjd7Zx6BqGBo8i0htHWaWwJvbusWFrOnrZ58sq1anq4lkppHPGPd3WML3Xo8cXSNbM3PqvlVh2WqZrj8iuM4+1vcdZ0ZH+jblWt2f7C4459uuHTVYG3PGFcrFb+Fec+A00p58+xJjpfjGPdYPScwkqKtHenNVCJFS5Zl4EdwPSRjphdRjPkOGWkloj1NacLHW0wd6eBolJ44sNJ3uF2J9OLYb6dNOB2wLnst2jz8mcY5Yul7ZfSFfX8Gnc9Ur9J5m+lSMax1qsZdkrT8MtUUtLCTUwNIIJuJ3hqVL6vwWuR2d7XxvKJO1+njE9G6rcEl4Rv4d5Lifi+Rn04yIatPEYMbG252s0WPQ5SjFPXMDudalFA7XLvsTarKUWnubtHwtwG95PoxkEVx16WxDLwp7C/jxhjVSHaWwziEtYrZNr7fdhxmqhj61JIAU02ygn/ZxiLWPWEN0orFVQUE89lvbwfHT+qe2hG2qW4bSDIu17kd5T4yI8qka7kBKYgAkj7w+AdhT11bVc8btWv/HS7YhCFaWL5WAwsKmPc+HdQYs6p7dY/wB8IUAdu+5/3vHN0J5ibZ3lotvqrN/N3K4Tqs+2xEL1CaidpFNhyHeU+MtOL6YMiZ1SakDM1JThbsezud8dcPixl21bN1lixuBI9yfxlViLOxIlvLASQ13TbzdulwKqCvURuL9XN/zEv/LEWiKFHSylPO8WYEWO43kwvxJ21YoZJc6eaOrrOH1uNmijA4KsFh8u+92vsB5sSdFXqEc5c4Yhl6s2x2/1cjGZVsRlFBJRNKklTUVBDqLzKV0heKLKCfJ8x8cXKkc1mJP8LK9rjs5f5JPP1t4Y3Piz/atuPS1dte/WTYH+cPiez0yOhtvUqPQ1u8kupbxvT4Zdpi1ardHaJdI0MGv57VOOeU9txSuHfAx9lke5P5eHEx7WsgOGorpfUKYhvzDY7MnGPr2+4InPj7/LhWfbd6OAmmgU89KWN/5tjnk3GhqXqwAHa4Rub8+6kxnbRvY1PLfi+B29kOGwvPrNBKkZuXhG3nskXLE9qwszVQ8ztcueJa3L/W8dHM8h6xJFG7Mrhl25q5R4yvx2xPYTyo3jh1am1RJ/cxYtWOmh2jU+Va525WvNjlW1/LnUMdi4+LtxYsp6c5UxLDQGPdwkWnnz7l8dJWa18vUGaVypY8VtPn9lmxjKrDStE1lY6JRp4a3tqHc/PyxlQHa6eYcM8v5EmKCJLoqTGCdPHufzpwhWbPvEBfUAqW/qQ43EC0tpjZb+25j3NTipGvTzyR1BkiF21EEHzF47/NjlWomvpTGXaHQyOGsdja0dvowlNEc0j1CQrbeSTUfjm+vGp2zegqFD1yxLHY7/AJSDFtJ0aZR1djfUTGeX4t8ZWCBe9IAtaoG9/fDg0BGSsac2bQt/6kWIitQXEbi58h9V/wCTNjWPaZdMDokSMhys6RfSv98+N3tJ0DUXegyMsd+s0l2/JnCe2b1GZJVPV0NTJLDXRM9NNZnPcsVjC9j4gMag18wU+rWUN56mXl+IXGZ1Vvcdf0WZjl3m7S7/ANBccc+3bDpqC0TNqYAE7Ywrl6YX6W51uBZKU38fJfHS/GOf9qx88rDltZFVpG9RoqU7KDtkGmUbbeVvt6bY6YzhnPsmGjEDQrNVzPDNQrM9VFw3duNsSDvyIFzztjSR09SSwlB1bq+3xT44+3RmZ8jNmVMFIB6rX2N/cKcbxnDN7ZlK1YVmFVRw0j9YgdREN3JqVLMdzYk8x4ebG8tMYnumIZsgq1jdYyXi7TPpA7yXxxn8fyaz+LhYiewyHSDqHyGHHauQlgtegXa6pYk+/Ys6BIzelJXsyCEkktse6bwxARNArHKXVjHPe/K3HwoegNs0g0izDR2r/wC+HEoqrOYHBG6weVquPuYYnpax6rR/CisY7uamYqQ1h7bHSfFm9n4NLTb3JLrcgmw7dPielElpHipI2fSvFp2ZbODe0Tg7fFjO1OICKprgHvSL339nkwSds3MG3ysHktRHzPPuoMWdHt1rtqMliPb2N/53jm6E8w2zrLLNqsawHf3lcWdVGvErcZCGX2Zdr8+8p8YVxPTD/wAaomuv3NTi1/Sd8dsOnPLtsSC9Q+iyqXfxtfvKnGK1ImnuXha+kBk3P8ukwL2jXagsP4gm/j7BJgXsVNJ6W0pOz8Ov3+OTC/GrOz8tEh6UU87GXW1VG66IrrZRGtmbwPa2GMy8GjdSgbKnUAD1s3a5/eMSXVX0FllGKAzoJaiTW6Nqmtv7KLrYmynmMW0xc1mpV+mFUD/9uNiD/uwxv+jP9m3a1fpYkkVex9HWHxmdnpj9EkBypLnSBLJuB6afGskxbxXVFJrB2jb+xVYw0pW03eAKVbvOX5eEYki1zmp1hZNx3BP6lsbiNVjaqJPk9Yb4fZ5sWsugyQCOkpRqAXsc/hp8c66Q/b/R7Fo9cZi7Dfg9298YUUteqvbbi8+f31sANCeGN99I5fyIcBj5klxUABbd7ff+dY6RmvUzP1YxRoSi1atq/BtJHq+Yj5MPZ6UyhA1PDzAMaC/5KLEy6I3dPZZFZlszejxmxzbNQDtI5YNokVN+dtceA5+pTVRy227sXv8Ainx0x6YrVy4WkmC9rvmv+dmxmtY9B1NG1VVRLcQ2v3hFxq7gj5xhKa5HngaDWtgSqeO48iXC1ViLVWrYd6eY98OIhGZVaL0aRa3j2IcbAIxqjh8LBrgfBUYlSdtSw4oDCwaQHb8ZFjLRgcQ5UhVg+mImSNV9kv4/McZi3ojWFZo5/HSXtt7uTGpGL0DQsA6M3iW/bBi1Z0NIvccvaNv+TkxAaMXZgb/dA3/KYil1XVAqsv3tbEfyI8FUqhqSUbsNL/2ZsXHtnLpz3Q63qFlo8pLj++bHTLtnHoGRf9HZHpO3WaMbc/IbFndS9M6avWqpqpQtWmimlUrJbhLaLT2Ph54siNSub/TGSkm46045e8JiY9Vq9x2PRq3qfa+y6Lfm1x58+3XDpqvYgcQpp8L4y05eDbpZnOhbHRSXJO3kvfHS/GMe6xM9qGo6qOdInlaOqitHGbM16ZRZfTvtjphGMuyiiSKgSlkpq+HgTUqo1awMsimovuRtYchzxq9pHVTMbHVbm5KjkPZ7fLji6MjpIT6o0xBuerV+w2+9rbG8emcryUTjhagVLUZnjqYBN1ZCpEvHjLar82NxuNsW9Mxfp4b9Ha0ntd5Cdtvv0uH4/kZ/Fxpd2ROKLWVgALXHsWPR7cvp6O/XIgwBXSpHw8fBRibUw4hYIISBuL+xNtiUHDWr5NYBURzAEEA24+wtiUO07ua+EOO7GgXAF/uw3xKKFtNCCSShgtb/AIcYisavUr0jrSurh8ecncX9v4Y6f1Z9n6ZruVXyS6m2qwHbp8Z/SohldqN422RYDyNwvcv+3CjSQBqrTGewZvH8dLiDOqwb5Zv/AKxGL/koMWdFdUWBWUodxrO//F45unonmdjneW3K861gD+KXCdVPbXiAaoT8ESqLE++wYy04jphY53QX8oUtNYD4+eOuHTll22HUcV7jTaR+Xm11WI3F4LNJCCbdtNh/LpcEqpL9QW4BQUzafzEn14iD6h/CeDXe5hryvL8KX/lhemp2dNLIvSiOd6qdYmqY3WnVGMblOGt2PIHfYc8SXhPZuckZXISuodWIIB8Or4zO2qXyeLL4xO+VmHgPKptHIX276xN/JNua+GFMXPZm7L0srlBUKMvOxHj1Yb46S/8ADH9m0fu/UpNjUk2t/vEmJO1Y/RMB8mjVFuA73Px0+LkmLcVlFO4TccNr/wBSqxlo1Io1yW8ZluP+KhwiuZlUBCVYq6xG+3vJxpDTXare2/fG1/x0+JUjpctYCCC1j2ksp/lU+MW8tRo0T9wrRHW/CBkht5Y4bWtjNbiI79aIbUvebA+biPiJVI9KpdfK0rYEe4gwgSzCKMTSaNRBidvSLrUnG4lhTK5HWvdRujs2qP8AC7xF+nGkEymLhxQrICrhVUj8nCDjOSztuFSeIzMx3aw8L99jm2LCF6wmvVbVsRbnrjtgjGqUK07AjnGvIe8tjcZp7LrcWpBFu9c2/Kz4mS43gwmxTWo0XUbfkbYyr1RTmNA+osroQjfBG/14uwN7CpbY341/1rYIXIGjWi6gUX+zDbAAjRUqSFXsrqt8lRjVSdn1XVNYeEl7flI8ZVfLnbhcHtaNMYG1yvY1D9mI1FZymvUBok4naQr7p8JUpSltrVvHWQdvOYMWpOl5WHtdJOj5e7lxaCxstx4tx72/KYiwFLNTKT+Av9iPAqKknS59D/smwx7S9Oc6IG2QZbz1ea3v5x0z7Zx6BmJ9Tcl/nNH/AGWxZ2l6JVNZJLSVUdRFXRSmkkKxyew6VjI1R/Diw9n62zZpkrbautnkPeExJ7Pp2PRe60G4tfTt+TXHnzd8Ws6hhZx8uMLHL0zEdLs4Vrm60lhb3L4634Rz/tWJn71UM0EtDFxalauF4oiPLPV12+Y46Ya9sZdlFiqY6RElo1o4I5qRaePjCUFesXJ1g77nF/RHTz7CTkR29j8FRjk2y+kMqR19MhbQskFclyLi5RbfBjph0zkDJHLHTMkk9VPwp4ohxoVjJVamMBhbygfAnzYUke6c6k6PVpXch4jY2t7NJh+L5J+T4uGiJWNWV9bdoFSvId3j0OQ8DsuZwGKwJRfK5ezm+CrnWYtajW7QkMCosO6bEoJFqGaSFN3Ec/gD9/xKkP0t/VWJQGbaNmX/AItsStKMFNCAhJY09yNPL1suIMitAbpNWW1GTjzbECw2bHT+rN7PxqqyBgxLl05Dby6fGVekVTAwN0YQW3Ase5e+IRoRL67bU1hxTawH8dJgTtn1S8WbK7jyaiIbAD73B44F7dS5AExtbyzcW81XjHt09FczcrndCmkW9fE3A/isJ1U9taO4qUA3PGAv+Vg+rGY17cV0tJOeUA30impgdh8OOuHxc8u2oR38tidnb5NVXiVYZhGqeBEQ3Mi7m2/eU31YilztQdjUfW3Pzdw314INHY9KKfUTq4FfpH9KXC9LO2tHSq3SB51qKlmFYmqNJQI1I4YGtOZLXNj6MTfCjVTD1PkZ11etyWA8RwF2+TGfa+i+TS0k5qJKEJpLKDph4QG01hbzgWF/G2LlTFzmakDpfW2F3FA19tvucY3Pgx/ZsEt10aATpqTb4esSYkPTP6M3XL41bZtcljptftU2LkmLTMixxPZu3wmJtyPYqvDGGjNW7NMPTVJf/wA1H9WLFrn57CFw4PkNvbw4IxpDUahqvvCVjM92IG+ni1F/mviXpJ26aitdFiU6BLpXVzI4kNvmGObY1I0bRxrq4cgiGmUefhHn8uJVhys/8Ru+19K3HiQz3/aMSFBhIRVIN/JF/igxdBes4RS6BuIsUmprbW01FvpxYWcMin1rmSaG0N1i2oeHfqMbY21qdXaoYsiDiIJAR4HTCL/KDjnlW5D+xjbTse0Tfzd9jK1dN5ACNhKPD3aYBDMeJJSSTsVPFiW9lta0J+k41EvQ+Wg2kuAO+cm/h258MjE3ExV10C51Db44cZaRVaXyxngIMccbkqSdro23zjBAGF5yRYjjE/rHxUoLDuR2hYqP2QYIpLq4upALKjknx5T4tWDA+ubjnxbHb3yPEF8uYLLT2k0BlHaI590MRYbzFUap0tpSTslG37fl7YkWkYVbUisQDcA/FwMaSdASC8ZKcxGbMPxcmInscMOKF9+/zcVQ4yOBHc3tGva/oR4ioq9LIxtbZvj7M2NY9s3pzfQ63qJlhbTtbe3v5xvPtmdASb5bkw031VNH+x8Wdl6Kz1BqaOsmkp65eLDKFaQngDTEQeH8O3hi6RoVotmeR8t6vn+QTGfsvp1vRIacr0htXkm/n7C44Z9u0bI5XJ+TGGo5SJgvTHNiOfDo+fms+Ov9Y5+6ys5kqzmXEoBGauSoThq4FiWpBsb+B3x0w6ZzIxQPDSJCpoeEstLwkonLRJ657W59tfn8XmxakdNON5OZ2e9xy+6McnRi9KG0V1GGsqtBXC58bxr85x0w6rnmVSnggjmanIV2kphpWo46lRUJpYH2oO/Z8LYpDHT1iejtaDdTqiBa1/v0uJ+L5GfxcQoCgA6bqG3Hm7vHormuxYZhFsV7CkG2/s+ANqBpCrAKOFYML/xT4zaCqGNdIzAIgjnF12J78YXpI0KbfNIwwRfYyW5M3rw4lagdx6nEDYdX5gePV1xCsisVm6RVhC8qia5IuOT46f1ZvZ+K2vSSCvEQ6rXPl0+MqhrCj2BKmnJB08+5fEIeFhWMUGo8ZrAjl30uBOyNUCajJ1QEk1MYN/Pw4MWdUvbqZnISQmzAByvyVeOboWzO4z+i2I2r9h+LwnVZvca6Blq1K3A44ANuffxfVjLdcP0qS+e0DEm5p6XkPgx1w6rne2u6kyya1t5VhbwvV4ysGQXqYtRACypYW99p8FCjKtQXkuqdXt2Rv7B/zwQVFLdJ4309kU1fcnw7UuF+KztpdSpW6Sx1SlzULVIrOCuld07JHlXI3vyxnfCmKmQplL3VTalvf4IE2+PEPRfJswjzRamVOPpRwo4mm42nNhp9qOQxcljnsyUjpXmRALIKE3a3+7jxxufFj22AR17YtoFU29uffy4kCXRx2lyyFY1vFAzRoSN7a6fn8NzhkYtJQvV5GVtQMTbHmO7qcZVoKmqujjcB0NSgIPoqR9WCuVqWPCkPuCB+aXGozTtPvVP2hcu50293VYUxdIHKVKkKW70DyvfIvqxhv2mFlSE6lDRtECU844HL58ZqtGoXiIGjcvFHMzlTzTtSD5N/mxJVvReNrIvO11B//HxpkNUlaKpAW6GlI25qdMx/6+HC8L6Y6qPVHYdnrDbX9+/5Y0y3KDW+V0rSS60ESi/ivZi2Pz453tszObBhupsf2TYgsgtVDe/bH94mBClfG0tBGFUgCO5F+XdD68anaVegJMchUbcR2/TnxL+1htCyyRm+ntAXvYntRYiohiNTTTxJpjlkhUMo8+k/XghdmHHbnYSED85Jior94UN2dltbcfeMAMsCpK38lj+jNhSDc6oXIFpeX5VMFAYIKcXLleEN1O/sSfXgNrMHjkgRz2k1kF/wdjvjM7Wstk4M0YZtV7WN7gjVBvi0gDHubeIjNx+TkwTQ4desEN2u9JCgX++nfFAoiWRLAadIFv6MXnxFVqZO5cknZXNiPczY1j2zl057odb1Byy1/Db8s2+N5ds4/ECZQcsyQHZTU0g/RbDXNL0Skqlno6lr10bGkkQwyX4VkjYak89+fy4o0q2xzHI7WVet+2PvCYn2fTrOiwIoByIuh/Vrjhn264cti/K/7cZacvCG/hdm9/I4VJp5eZ8dP6Rz91gdI0meVVp20TPVQCEgAEOacBT8uOuDGfYczMaezy0ckXEpmR6aAwqT1ohrg+OoHfbDWh0skh7wsSwOvx5fdGOVbYvSTS1dS8RTJHwK24ABYDQu/wBXwY6/j6rGXZKm6k1LUS5etGqNPCrLTkjsipTRrv7ex3+DC7Ie6dKx6PV2lbjXHYNY/fpMT8fyPyfFw0UEjns6TZWFiQP4s49DmlG05hAQRawsCL/f8IUdWHVNxqJiPMcu6fGaLi5zCW4BYRzkj8thekh6AH1Yi5X0ptz/ANcOJWnhc0G5F+r+SPEdXGIMWqRj0orSBc8adhfxHax0nxZ9nk2cne4ZLDz9unxFSATSESJo7o2FtyOA+MkaJHesCtlErbj8bNgs7Z1cw42UDSB67S+3vdPizqpe3UMbwy72Gh/j7FXjm6ei2am2fUYI8lcwG45djFnVZvca8e1Yt9144tt7/HjDbiOkwYZ/Qta68CkU+YGwx2x6cr21SdJlZbny9rcvuvGK1DUFhWRgLylTYj36DBQEBGXAn+I3Fv8AdxiAkZB6TxkEXFLX3FuXeS4t6SdnymXjpZGw4T14rApJlbWBccltbTbx53xLvRrk5OdOUy6VDMKY9nmG7iPGZ23ekUb1ErTvWUzU8rWOlpVksNE+1xyANxbmMWpHM5ppXpnmGm1+okW3se4XG/6M/wBmqSDXMLW9cMbW5d/PiQvTN6JvxMtgMjaDxGHZWwPeUwxcomLVVh1Z25MYGHL3qoOMttRdXqirWC2n/wA84g5RwVhQW09yu4HvMX141GadpwDWEDZiZL/LVYZGLqIlbjgKupuOPR9+T6sc26DEhjj1XYHg/wCSnyc8FasOmSedVTTUSB4/MN3kt+wn48YWF1vE5jYanWQK3wgwXxqIin1G3CF203AOwY8OU4X7GbLDwMxZWXSVld/5I4xI+a2NSpY1MqjkfLkpoyAW09nxayQ7/txjJqdDFgY5DYatB5ebTLiKKGbrQ1D75t+cXFQKVj1E+LcH/LTAodBdYZbC5Je48PKmxcqQz9+Ts37Y/tx4yCUkvag41kdQO1y1djkflxQGpgkhqO9bdnFm8LapDb4d8QBVbBe2Oajn+JxUQw0QtY/ezcf0JcBZrGpIFw3H5399H1YADN620Le5jWxPj2I8FrVojFPQzoiklXkfQT7tvqxi9rOirQ3Kmna8IksD+D24xb5jjSM/SWgudu7/AMpsUNbip8PZPH8a2AqlljB8nsgCx9zEMQBrCXpn1t7R7kHbyJsax7TLpz3RH/wPLfgHx98+NZds49BSKTl+Rr4meksf6DYvsvRafNI6qlroBPO8iUz9y/k09oSvYI8G2OLr2mz1dtm2SoBciqY+V7wmJPbX063oopGXWX3O/wCTXHDPt1w6axAJ8cZHLRX/AIX5qFBNoqTw5eXjp/WM+6w+kEBrKlKYOYnnqadOINihNON/h82OuF4c85yXILNNIamrqnl6i9qqMI6A1GykDzWJ+PFtPbp5kIkewX23Lx+6LY41tl5+AlfTAjfq9edvxS43h0zl2Rl6sVqRT00tK5lgd0emEI0mePTt7YjfteONUnY/TtNfR2tJAYF4wdrH2aTE/H8kz+LihYKBLdXCPa2/8V82PQ5qMCKqJjYWUDYW+/YQotgtMSLreEm/5J8ZoMp9fzWNgIp9x496ML0NKnAbN4tNuzwySRyPXDiVYGUAowUuD1a1x4jgA4hWPXA/wnrQtyOPPuRY8mx09M3tpQqeOFA1XkXfzdunxlVGCmlPauRCTex3tA2BD13aplK7jiNz/GT4ik6zR1zJw63Xra/F2IMX0nt0r26vIfcObf0KrHN09Fc3/wDHKPa3YzC39U4Tqs+42UOqpHnFTy/LpviNuK6QKDn9Fe4YwUY5EjyRjrh05XtpkgrKWXez7+farxmtQzGbVkY8m0y72599DiKDqL5eAQbinG9veEwEwK38JRfYdTriSf5cuF+Ke2kaigPS1aUU+muWuDGThbtvz135W7Om3pxnV0vGztQScpk5g9WsCOd+BFyxJxV9AZV1hFq0q5IncPsYtO3Ynvqttq1Xv6cWmP7c5mgLdMc1IG/UyA3m7pcb/oz/AGakjaKu/ZZeObm1r99UYkL0zOiCK2W0y2ZtMpYP4EmSnGNZJi1lPrR1YA9yd/RwZt8YalaOorWBSWcce/wd++IrnKw9teGh0mNAfzEGNRmnsrUcWVrWbvb/ACVWFWOmG8wW1xx738R3q/Vjk0Ht1fUbW4YuB+Kj+vCq0KZwp1TLeFZSQRzUiSU3+DYYlWIqY+HX3JuJnEyfAZIfqwgW8qC+4Xh7fmn+vCi2brK1ZxmK8PQ0a29sVYnf02/Zixm9ooG4KpqfhIt7PvsbQjf9nx4lahmpiaNXjLadC27I9xIfpGIbGgY8e1wLP/mYCkjaaLUVAKxAD09mPAodOpigd3CgNqPPw77FpDEhCzpt7cePPvFxBTUppY1qOzE0Wz33TsD6TgaHzANIqTI4ZLgsPgV9x8vzYFKAWULq21Luf5UOKBN2qbtn72Te/vb/AF4IOSDO7EqV4pt+db6sFhfsiEad+yvI+5hwKbyaZUnMZ31rpB8N3kb6MSxYmSIQzAU4CEFSUve661F/0cSDPDaozo2Ux7Le9u65fPjSC6tUrWttKw57+ySYCAo0x3N/J2J/FYilqq4opbDsmFz+rkONY9s5dMPootsky8+BVTz93L9WN5ds49Bzi9HkIBI9cUo/VHCdlLVGYxVGV1oSeFl6qwSnEWh4rR2bUbb3P7MXWoh3MWAzrKN/9Zlv+ZXEnVX3HWdGhooWPldpf7C44ZO2H01dTWBQXxkctALdMc1UbKYaTw/lY6f0jH9qwektI1a6UpfhdaqaeNJWU2BNON/ix1w4c85ulaelSnppHWpqp1llpmMtTEVk1LVaSCCT5tsW0kdZOSWkOx3e5A/nGOToys/RpK+kKKzWhrTcDe/DW2NY9M3svWmqZplqqaeGzwkPLIJS96hGIBGwAJIC+GLsX6cm3R2tPNQ0Vtuffy4fj+SZ/FxEekDydakMNtrexc8ehzecA10fD7S6QSbb+zHFiUUAdWbfUOCefh3T4xVMRqq1shZgbw1B0W5d8MKQ9ECM3QLexC2Hn9ekYlAypFHbtEdXO3/D4npqsesKjpJWF10jjzmx8dmx0nTF7aSauKhYBQ0ilR+Ugxhp7VakUO2gGnsdI95P14odKATMbBRrYXJ595UYhGfOf9IZQC1r1i72v7WDFnSXt0z6jSyb7cN9x+Lqcc3T0WzNL57T2UgCPMLEfyTizqs3ttJcVw7OxqbEf8QuMtuJ6RMG6TZelrgQ0m58OyuOuPxcr20JCpSTSC3ZbY/yarGVhuA3ro7MWtMpAH4+PEagKECiS3aHV1Fr8u4j+vAXj26ShiL+sK02/KS4XpJ203zM/wAKDR8OoAWttsg4Tm+rUW56hyt5sT1pfZqpDNk7qBctTWUX5Eww/TjPtfQGWLVItT16riqmDW1xDbaOcEHYXN73Pji5dGMrnswj1dMM2IKqqUpGk35cNMb/AKMzutGWLVVEG9+M3Z8/e1OE7L0z+in/AIZTGNdF5D2b8zxqfDNJOGle1ESQbcDl+QlxlqNAMTVtqQA9YJt+Wk54DCrhaYqOwNC7EePCp8aiVo5PujlmI3lP6FR9eM5Lj26WDV10BOzqlYX5ffeXx451sNUKIIpLqVQKR5rRxYAlOXSZmiN31G6Hk+8+3zDCw2cqFR0ppkGjgvHTFGvt3kZH7BjKs9AxiUOQe6t+qb68X0g9UikVIiPaUSyshPu3Fx8p+bCU0mGJlCqxIOvkw2tqhwqxeROHEksLGRZVawfYi0b7H5cQEku0oIIWQSbX/lt9WAsWLwaT2iUHP+TF9eEFI9qcBhdjHyt7mXFBbd+O0fZbW83eDECyFhCxC8SPhqHS3PsR/wDPAaMscctJIqstoy5RhtpuGG/ym+J7LGdpMUyq3NZAunz9uIfRjQG1xTnTewjN7fi/+eCDAd6xJJtIxsfxkmAGVACAdnyRb8xiKikd49Mixh1BVtN+VhKbj/rxwpKeq1iNbE3kPIEZZAeZ1Db5h8uJFZ0+sdqRSsjJ2n0+X3a740iWUcQmwF3JP9abAej2YFL3JUfDvDgpOuuaCc35U7m35JsXHtnLpkdHezkuXN7bgqdvhmON5d7Zx+IU1+DkSnc9Yg+aAYQrNqHpJKCrlpTRdqjKpw/ZbaFB4m/4XnxeUnLWzNm9XcrFuU9Qdt+USjEnVX267o2umhYk2uw/sLjz5du2PTT8Nud/AYiyOYanK9IK6biIGnjpgq73FiwHLz46ZTiRjHVuymc5OkwiNUzNCJo5Jxq02Cx6Njzte1zzxcM/SZYsiSoeWOQTycSpTqQmiWYzJE3WOQY+ixIufhx00w6ObZpNWxu+35/HONs7Og3qnRnUVfgVxWw592tvnxrHpm9s4iYRVRdKBV6xGWFK7OvF6ymvVfk17bDbfGtJB+nItkNepFjxIgAAd++k5Yn4uzP4uJi7JILFV7VwAbH2ME49Dn9J2FdFcAMVAFhz7/AMKoWmN9WowkWA5d1JscZoIwvmEpN1JiqBuvnmxaRoJtnEd7WIXw2+7T/18eMihF6AlPGnNmta3rff6fkxFrEzBdXSWuIFzx59RHhs2Ok6ZvbSiA44UXJMidq3LtwYw1XlsKZioD3h3utvvP8AzxUNMwEkviS7XHm7dRyxFhKpIfMspW9vXi39G0GNTpL26Vj60ksDcRPqH5OoxydAM4N89p9DG/DzEkX9BwnVZvcbCC9Yd2v1i/m+/j6sRr7cPnwb+FNAHa1oqP4+yuOuPxc721XGlZLAK2hj8PYqsZUxDdK1NPdkTjfz9/Hgs+g0IakW3Z7gA/mIsQvYkTA9JjpUK3Ua3f8AKS4XonbY4la2fcJkgWnFfsTMeIRcm/D5WvcavixlfYlSS2VygMIyIPKO33qHe+J7a9A0cc9OlWtTVy1T3B4so0sRwp+Y3+L0HFqY1z2YsB0zzYEdvq7Xb0cNMb/qz7rSkPrl9N78Vt/ylThOyszogCcqpix34p3J9+p8XPsx6aSk9TYtZrwHtFjt3En14wrSexqyAd+M24/HS4gxs0UCsdVJZrKN/wAXTY1ilaOX26nfYahL4+4m+vEqxvDUau+9lnP96fqxzraXjdOG7SB+LHqBve/ZhGIqjX7W5A7W5+Coxb0jWp1aZTTyFTqcSxuPcFNjjKsJjI6UpS5TRqIX8QbX+XGtcI0JTC00jT6gvaQlRvYySfV8+Iop08URltShwAb+V2orHAeHCNNNJrKSCPVvuPIb6DiAjMpkJVbdsjc+7fAARSQmnmVHM8tob4Cy7xWA8lTYn+RJgLtfjabAASar398/5YoFCWvHw+egdocvIiwDVE66zp7PF2YDw7T74l6UtNGI6sLxHbU4a7cx3qC3zfPhEoWgNSgDUW4f+WPrxRa51vZhu7H9OXBHtuIq7kFlsfDyocFLxs8apIhBcJqGryb8OQ4hpsVSxNTKTptEyqwW/Z/6NsSLpnPE60o7YqIdNlc81GlBv8OKmgwSC5flc6d/x2AsPZVCmw1ry/lx4ptn5kxXLJvFRTPf8z/zxcezLpk5G2nIqHzLTL47+TOcbvbHoOskP+hFG/fJ8dqZcWJSNZTQxZbWSUlHTxwNTsI6hJNTTrZN2+M4b2a00szdhnuX25Bqz4+xiT41b267Irila3klzf5Bjhl27YNFxq8PlxlrbnKWR/4R5hDIthFFTC49Jc47ZczbjjxWTm2ayUskZeo4VOs8KSswPkGEM3hfni4Y7LlemVA6GjfSKDiBqbitRACO/WrgbeNuZxusx1k4HeXH4YLAH3/HJtlZvY5pRqbWMFcNR8O7UY1j0zl2R01AgqxPWpWBKiKMHgmIq4qIwwIt2jy7XjjW0m4Y6d2OQVoIF9cQFyRfv5MPxfI/J8XDoQLAFXOl+0L+97Y7uYjIpq0ICy2QAkXsO/NsAQ/c5UtqHCJvvb2J8ZsBzda+XtXtFU2Hh7LhQ7GxObJdgNh8Xr04grqtQ3Dcqe4/8ucRWNXgnpHXaSCWqJgV3B5N8WOn9Wb20odXHUWCguux8e8gxlaqgBgtpWMcAi5vt3IwIc3EzsTZNbi/9KpxCdk5wpzXKNwLVqjUfHaHGvRe3SMoFFJqZVPCdth4cKoxybvRfNCBnlMOQ4OY7j4GwnVJ6bIe9bZuXWNj/wAQMZa91w+e3HSKi7OrTDR7/wBFcdsfi5XtpEkxSF7kcNreNuxVYxVhpLisjBuSJx8Xfpi0gMR00alr2MA2B3HcxYlX2NFq/hBe2q9DW7f05cL0s7aZirh0nWZqpTRmu2g0nUBci4a3LV7W/pxNzSmagocrk6wSIurkMV524UHLz4zvlq9FcmjoY4qtcufXT7biTiWPCn8bD0G3hi5VnHtztWxfpfmrOChNM3Y1avaJ443/AEYnda8oJqWsGA4j7E++VWMztazuibomU0rqCVEhuPEd9T41mmPR9JBJQOYrWNORub2PAe+MtH1cddYNe/Gbk1/vs2IMvMZUkrZHDgDskXbw0U3/ADxqcRK1KKO9CpW3kSHnz7ubGbV9NZWCVQ0Fm77YX3PfN9WMtjroanSVBoeNUBjJ86xcvmxlQpvY3LXPZa2/jpnxfSezlJNLFVOYbtqka6X39kUEj5cRdlyqBisXZTTZSfNwh+zli7Q0GKTtpAYl+V+fblNvmxKq7cIyRCPa+lmHmbXH/wAsRXoQhJEygIygX8w4Z+vAqCSHIYXAc37Xu5MEVB0MhsbG1v1IwA2bRAfJ0qhJGrn2HwBQbVAufvhNr7eW2AAxuqDkoUAj4osUMJK4cmYIkybo3LX7Jt8mJQStCieCThHUeHcX98Xb4RhPoJIxWBLbjh8tW/kJii72W7q/Z1te38qXBEC5I0/xi2391FiKWuBS2ttwuQ/FN9eLIWtqi2pZlVo2biyaf621/gxmrGddOITS7hbiSLz+RviwKs+mNwp5Kxtb0TYtjIiEmoAB9uOf4xPqwGfmb6MjqSoN+qv/AHS4uPZl0ysqJXo9Sb8qReXh3U2N3tmdB1x0z5SB5KyM3yUy4sSkajL6aloaxoI6kScMRSSSMNMt+EQyi2w3w3aanpoZr/8AUFJ6Frm/aMT0vt2eRuOpEC/ltjjn264dbaHaPJtvgxhrTmoS38LM2IP3qjJBPLy8df6xzndc/wBJXplmSTMLPS9YpzMu57PVx5sbwnDOV5JUMlPJTzmnamkBNEkvVlKRF+sblVI22tf041eWZXX1AIBPNdTgqT+Pvjk6MvPD/pKjJII6vX7b29jXG8eky7K1MDwQSLJPWyATRKq1LBuyKiOzIR7U+F78sVmL9Orno9W2tfXH5/46TD8d5M/i4eIaNJU2srG2+/sRx3rkuzg1qcPYaQSLnfvzfBRU2pzZivcsRvse6kxKCsx684U/eai++1zNfCmz0e+cRsWBACknw+7TjNV4ECiJJ3NPYej1ucQZNfJ/3krQVDPx5gDfyfK/6+PHT+rPs/Tm1RHqYk8VbA327cGJ6V65FKNbrITBYc+z3IxkMvvLLcAjW+39KpwPZeoX/SuT6dDk1g2G9vYeeL6PboLKtISRqPCe4/JVGObdAzlj6vwkHlFmPZHjs2LOql7jXTesFwLmotb/AIgYy37ric+B/hHQ77cKj2H8lcdcfi5XtpBgY5ltpOhwR5+xU4y1DkEjjMFMJYHjgWH49MKkAiUrRpY7iFb+kcCHEX2JCx/hGVXa1DW3v+Mlws/5WdtGWhYdJ0q1qaoo9aTwtPcg9ped/L2G1uRxmXg52dmeNMvdpwWj4F3A8RwoL4ntfRPKp4ZYKp6ZoGGwJih4Sk8Gc7L8BGLaYsGtIXpnmpUdrgN/Zjx0/q5+2nIx4xuSTxG/t1WMTtq9MrozKBl9GpB1vJZUHomg+rGsknTQ0pFQyFFYu1PqIRgB7A174y1GiVlNYzMqhzK2wPMcWbfAISIvWzrAb2PlYeFLiyppqwC1IR7cRNa3m4Uv14zWmm665zq27xr+H318ZrRmkIkhgWe+l0XRIBe3Yi2Pxn5sZqliWeF9e5MbE/1ZsWJTKBlqr3Ps1uXvq4URM7yQRMyaWMZJa47d0Xf9uMgjgBmZTYaz8N7zY1A0Fd6VXYDVxYwpXmFul74x7aARu6EijVpS4VvHu8VBKjhpUEQ7jyj8N5L/AD3wXSELcSMG1th88WCAuLw6R+Af7tsARt5zpNu3Y7c+2+AFECVQg+bl+RwHmJ4fDcBoWU+XsV7Ml7HAMGd0hRJo2OmZdyb3W/MfB9GM75asZ0ciGIdtS3DG55eQmNbZ0Ks6FDZ1Fi21x55sU0ufZl5bOOXPy48E2U5Uw3a/B/ysWDRy6RUrJe8AJ1XU8vZWt8fPGclxBkiVaxwjGKfUWBJ7JXUv7dsApVSkBwyiIlL35+0kxUGuWmudu8/zMDTKzd7ZJWAsbLSv4e9x41j2mXTPoduj1P6KMX/MS41e0k4DzK0dVlga4UPLyG/3OuEMi1bEIctlWOKoSnWPRA8k/EWRdcZDKPa/FjUTZvMj/wB46b8TXbj4WxnXFW9uzyWwpWJ2tI9vlxwy7dsetHHNiDYm/mxldOeoyx6W5sH2bgUp23Btrxu3/mMf2rn+l8i0zGSoXUiVUBlUgdsCAXX5sdfx9OeZZK6KujkeOqStKyUqtUBDGD66JChbDkCBjVI6qU6pJFRWaxf4t5x9I+XHFshnsTivpHMZW8NagJPnjUjb4j8mNTLhL2z1yVMvp6iSN6jTNLCLylWDEToQVtyU+bGvPdSY6X6akyZFVb6G1x6ixsFvNJ9N/kxPxfI/J8XFXuw1MWIVgDe/Lh23x6XFchVrEEhNyoAAO/s2JelWJIpbFgSsLbnw7t9sS0EjYiuckj2KoG3j3oxaSNKBwucRgttZRz5+vTjKqHT1PY7Gn+fq5xBj1RC9Ia4qotx5tTX35Pjp6Z9tOnJMw0tbtqb+c8SDGVUQ3pbp2WEHn95UYKaJBkcKArBmBY+fVU4iey88ls0ykoVBWsW9vH2HF9F7dCWvRuCLd04uD71UY5tl82uM/p7bWhzL9jYs6rN7jYDgVrEtb1z4/wA4GMuntw/SD/6joDblFR7nw7K464/GuV7ajsGR9tV0ax5e0qsZnTUOwqTXrq8rjjkOffpiJC8RAoU1qPYF3vz7iHBb2tAT/CELzX1PrCAB75Li5fEx7ahny/8AhQYNASsWsZr2bU3lb3vbTawtzuMYk4XfJuolEOWPKAriOnLBWHO0UBscSdnojllU1XDWzTRVUTNpstRYyewTWJNh/wD1bFq4MesUr00zYttHwm3t6I9sdJ8XP20JG71rLtrbl/Kq8YnbVZnRJNWWUfZAHFvcgbd/DjWSRpQwn1OOndTTk7m/OA/XjLUh026025XvW+Xi1GIBTxKoiIAJut28edJixKeIZaXlccIjl7zJjLcPNtO/ZPsrbDme9kwUakJMahWv2BrjYeVZIeX/AF44zVlVrFEc86IpQaNhe9jw5id8Il7GUk1NjsvFuLD31cKK0zu1JwksymNNiNx3a8vnxlRWGqRvhOm3jvNipT9MkcVQgjZu3GZXS/MkqL4z+2iJTRTNHIlmSPRbnvw8VDdUA6LIV0uZSvZ8ba8FDTywSLAsP2xYJQma0W4Gkp4D3BwWPS9mcseRk8/un3xUQo3S4FiFNvD7zgIV3RX7GuMR9tTvqGmTEDiRowdbjhhyy6j5Jvy/biVWPUUkkadoq9gA1v5Kb/BiaNgtBJobVHq2N/1uGqu1VWRKkGNHD69rD3aYcnAq36mobe8Pm96GN4sUxDcVkZLb8cXv5uJLt8mIHswgR3SXUvlKLjz3Fv2DExrVZ1SXWARyorSqjam27Q4b2ONRE6h1k3/D8LfxhwGZnZ/0FWWPKkfYj3EWNYds5dM6ksvR+M/7jt/5eTG73pPSmar68y3bm1R/+uuJLxUsZc2Xep9PWcLjsGCC8kWhb64/I33X04u9ppqZl/8AUVOfbcGttb4WxJ01e47LJCWpXRjuJGPL0445dumLQ07Dc39GMNubp3YdLs3JuQIqUG2x3D46X4xidsLpFUwxmKbMA01JDUQM8ZAbWDACRY46YT6Yzs3yLlvSKmkpZnpoKep4TwxtKsfCRy8ukWS22m/M4ZYX2TKenQzV/D1CJFj0lid+fsnh8KfPjl4t2sPPpBLmNK0puODXX3uB3Sn6cbw4jOXbPioBlsdUsEtS6NLEqiZQDtPH2k3sVN9jjdt2zO+TnThWbIq0arnVHY29/kxn8XyX8nxcOp7AtcHS5N+XKLHovbl9DyxPDVwM6EJIt0O3aAmtgIYDq5upsISd+XsUmFBtRNbJyHd1Aty24owpD8TL6rJbcDTcH+enGaqkZtSG5JPV7AbWHrc4hWVmDL6u1alQG40x2tvs9sdPTPtoKwE8ahhp1oT+chxhVR9yan3BgsLmx3hX/r4sVTUq2dy2ki7cjz7VTiELSn/SuUGTl1weT4HucX0nt0Ba1I97aTE1vzVRjm6UPN3PqvCuxQxZgxHm2bFnVZvpqoCKwEj/AFje/wCPGMNRw/SMj+EtCRsODR8v5K47Y/Gud7abNaOS1t42vt7mqxn01DcZJrVAtfjDn+PTESBRLegTydoF58vYYsF0tTkfwjDLq+4K2483eS8sMviSctV5T/CRU6lOqdfa1QY14bN2zs1r6rEC17bYzOmjM7umXzSwrqeOnLKhW9yI6e22J7L0SyszNBXGppZaebV2opXLsLwTHmfh2xctJjGNWEHpnnBBJYwk6SLi9o8dP6Me2jLbjG99WpzYD3VVjE7a9EuiAHqZRFgLmXl/xEONZdmPR+EN1Fhz9b/5GM1YddWWqk1fxzC1uXe1GIqRBx2gQsACU+G16XDkG1Hq7EgqOEQL/iZMSqecP1g2ALCVgNtvZZMFXotB06wQbCzrzHZg8PkxmkGrktSoGCs9pdTqPKXRJYk4ivKzCe68jPbl76MEUo5CvCIbRpQWe3LukwU08Twu6su4uTty9lP04kL0PM6LPCrMqtwlKvv+Got8Bw9LtWtCpJxFctxtTDbyQEA2898EWWXQJY2IZbMUNuTEyfVgryMVeOwvut/H20eCF4mHAGntaY7m4v7Q4CXUGdivixvce7fFFYrakHPYcx+JwFN0QsqhSqm1/wCQ+IHKdozLM+lFjTWZFIuLhuY+fEqh1UepY5oJRLA66kuBZRZAP2YS8hceS9msdLfH7Nje0095NQtj98A3Hu0xNoTb2BCOZi3H5IYsB5ARM6sWF2Pkj3U2INFV4mXQkOS4VQzKdwdr4xO2vTNrA6Zeya9QEZMEmm+rsNcH4sbnaPW9cALyMnmH8Y2FIys/FshrdI/1V+Q9xFjWHaZdEaX/AOno+QvRben1u+NX5M/1Vza3XsuubC9Rcn8QuGPsvZKqoFpMuqnh65wxojVqiTWHUPGQye5N8a2lO5kAOkNMOR4Vdz+FsZ9Le3X5HqMMmnUe23wY4ZduuDS2sCdxjLdc3Cobpdmv4RipCR/Xx1vxjl/aue6WNHChkli40UdTTu0dhYqKcXHyA43hGc+ycddT11HK1NKs7JJArSJTiJTeouBYD2oIF8asSOrqIxd2KmxZrgi55z/8scY3ZWZm6lMxpNKm4irgLDn3KnG8Omcu2dFFSxUlQ1BUNLHqiAXjcQBBURkH3F7m6+Fsb5SHumo1ZDWqO0WeMG459++M/j+Rn8XE6TwwpDLYPsfAWjIx6NOX0YEhlrKWBiO5Wy+bepv9OJVFSNjSt2DvGQSBf71L44lXQQlSSreSFw68GobblbiC3zYXpGhGL5orrfs252/2w2xFQoAoiy8+r2ufxDYkKx6uNv4QVtxYCaf5g22On9WfbShXTMOytzIouRt7JDjKvRoTSBFuSYd7jcDgriBqVGWaUxgnyxfzdqpwUo5YZtlQUjUKxb7cvYcX0ntus2qlbe4MLb+B7qoxzboOZ6fVunADX4WYcvgbF+xsxkCvIfyuscj/ADhcZVxnSAiTpLRWG5io1t5tlx1x+Lne2nKtkkASzCNibePYqsZbH0gVBNj7KCAfx8X14MwKJQMvVjZQKcb295j+rEaVy9lk6QSOjXDUVYVN9iC8h/YRhl8SdtmVqr+FCRyJTmA1R0G54ujU/MctOq+/PGfR7MyLK1MUpzw5jB3bg2s3DgscSdtTollnF6vVcd6d2HIwIUW3Am2sbeN8WyekxY1QD/DPNwRYGI9s/BHjpPixe2jLvK97Aa23/pVWMTtb0S6H6UyikbwElyR/OIcay7MTlLIJMvdtAVViKXvfVaDnjLWtdtF7GpYEgkytufxlRiILSKOJCwQXDJ4+6pcFWFzTNurd0f7mTEqtAeyzFJAHMjqy+deK/L/rwxKoVPZAoIBNht5tqfDQcRmkpJkpDp1xleE3gbSWtjIhTrqLWsTP/m4aAY2ISMKoF4/N73Hi3pTs0ahtcbGxYqQfKFuL9eMj0V1qwSQW1ad19rxF2xSDzyKcrLKrwqicrdpb22GIpdnXUdhHqJUixJO82AIvaYANoXUPD3ceCBX7k67KeH/gxQVgA1t7lzbbx1PiAKKV0XtfY7j8TgKyjVC3Y5xnwv7R8A9SuvXGZlCydpVsLX7f7dsLFeWTrXHjpwYpKWThWZLKbhWFvRbGQkylQ+pfBva/jcaRAXvlLL98G4/lpgF9Nqbf+L5/khiovIO0/ZAuzbj+VNgNDKGHDkQklg2rSf5K3+fGbxy1OiEo6uslPUKXgOpLg+x9g2+bGkUZrVTA2Zddv1jYhtlZ4b5HWeINI/Ie4jxvHtM+iNCC3R+HULnqI/uJMay+TM+KucXFZlvPSWnHnI9briz2ZdkKiihpMtrDTRaY+H2H4/E4o1RnVp9r47YI0szKt0goSbEkVq2+I4k6q3t1HRp2eKq1jspPYW25qpxxzdcGu2x2F8YaczT7dNM3uLdxSWNuZucddbxmnP8AtWVnrcJI6mamaSOOop3dFTUXAgYbX9ON4bZyvLOinNfldUyJUPLGKdZKl6bhNOesAi6jzDGrx2zt1lQNcsgVWILuLgG3OUfTji6MvNo3evolWN/IqzsDexp1+nG8emcmNIKV6OqOWQpGOGr3jheNh3sWlXv5Tje5GN8pWh0xOrIq4CzLxAARvf1w3/XxYn45/wBJneHEgl0KqLKqsSefIR+OO7BymiRHkmkadSqMqiMIB7I7bluVtNxYHliXpYeDGeSONxCouseqQNUMO2FGzWQbvfycZC8yiRutnXJPJBpJIAGkxo1goFuZOGweNj6qIfOlhYcvXu+CPFgtCCL6jBa1tr8BhiRaTjy2pzLpJWLBGAqTSh2ZgqqTqG5J578sb3qJrlrR5XVySlhQVXZbUQOFbZkb8P3Hz4x5RdJXKa9KcBqCtAWPTsIzfsBfw/RhuGqO+W10kjN6nVqK1/aRnxlP4fvvzYm4TbLzKklgzXLOtwVFMrVSMHdF3sI1tsx/BJ+PG+4ntrsNFKX2A4TG48e7qcc26FmxtnEA2s0WYaTbls2LOqm+WzDGTXJbtWqRv/xC88YvTbkM1paiq6S0aU1PNOywUrnhIWIVQN/kGOuNkx5c7LtsdUnMTaqatUshFzSybEiceC++LjHlG9UXq7CfU8VUF1ht6WX+Mib8HzI2G2dUJ0VaHhslSW4Wjell58LT+DyuMItZ+XNGvSFkpfJFHVizIyWBDsBY78rY1l8Ul5dFLCy9I4plrKhkarDGA+xhjqG299XLa3jjO+Fk5GkRWpzx5SkD07cQruVXgQ7j07XxmL6JZWY+HVGOqepiJVg7zCY2MEwtqHPljVSMWvkROleZWuSYmup5co7WHy43Pize2i7apnXVYCVjb+lVYzGqS6LDiZRSoOwjuRYfj4cXPtMGisapl1lsFWnvpv8A7vjLV5OySo9XIBdSJG+PvKjb58EGpLq8R1b3T9tLiLVYrml2v7ER+pkxKt6Pjt1tmcIRK2l72+/PiVUqH13mO7nVf4oMLUXjkVQOIStlNnXmvZm3xL0ploylUGNm1SBhb0yg4SheG+iIMC5EY8/8WmJVOkizltWoEsOe+8m2Iga3abUEYFZ79s324iG49GKsMUEzSxjW3FR0TUSN17AO/nxAAhlbvbltWwPh7LbBVw95E9sbi9v5UeCBgq0WhmDEx8re9t9WAIz3lK3DHWTsfDW+CqISxQheyALb/ijggbnumAO4Vvi7EmAODHxtMp0nialYA8+Jywqw7JJoqood7Tqx1jzrbx+DGGuCUsci3u/EVhYNbb75jbKirxDpB7QmH7UOCE2stMRe/deb3r/lig2zl7bWkZbEeOqXFhRMvdY6xVZu0Q3ZHiNMf02xnKLB66FleScI0vYPhte1tx8GGzRSdIlrFEWysFexHnkwSsnNrPkdWBYOaNx+qQ/RjWPaZdEaIj+D9KORaiVb295lxu9szoGtInkyV1U95IdXo1Uy2xYZMx6WmbL62ehSiESUzENHITK/ZU9tSfDSflwTTWzF9We5W4UAmSpH9aIN9OJOqvt03RokpVHzyp8HsaY45uuLba5A8+MK+cdKaZqvpJmIEXHURU91AfbsvZuyfDfHp/Hrxjjn8qx5coUKGEMitYgi0gt8smNys2UPqCLGAruBq3Xt2v8AncXySR71PUFQNQ8Sut7f3vw4mzSDRAblnBYkWDvuPzuKaEkoYnsrSTFvEaz9M2GzVCzCCKHJqkRQEP2LnVcntjw4jfs+PCXkpBdJVrAgaHsLHfsx42kNOU4jOFK31gqL8u/GMg1O4WqTY24q7DY+yQnAeVtVGo3BEG2x8IU+rEUyun1WTaxAuTbzVuBEuB1I6RqXgXJty7h/qxJ0VoTwwTzSGSippG4j3LReOuff4ewnyYi6LU1Dl7ugagpjdFJ7B5loPT5pG+XA1FlosvEBkOW0ptFrJ0MBfhO3n86jEtpqHFyjKTUcNstgtxdHtuXEkXz+ZVw2uoXiyzL4pYpIaCLidlwRqOltMDefzu2LvRoy1lgewDHhv2be91OIAZqoOd0w3vw8wAFvcnFntNcxs+uBUy9WgjPAk4jvLLoQHWrqL2JJ2FwOV8ZbvBeKip6id45jW0tXTKkU6w1TKjr2QjC3MEFsS264Z8ZacGTQFTprM3U6Sdq19rCT9wYeda8RmymCSUItZm0ZLi4FdIPbIv8AixPKnjC75fCYSfVLOVbSG2r3/A1fXizKp4xz/SLLRSdJaLq1XXSPNHMpeaYs/Z1LYNYm1vQcdMctzlmzVekpKlHEkQqVnIIMw42onz34XPCaTlWdcycBBJVIu4OgTAEEWPtPMoHxYaTdehSuhhZIzWICCCV4wB5+AQec/LiNSsmrqXXpJWntB2WzFudrJ9WN6/5Z3y6ESBpWBUXMz7+YcSpH04xO2r0S6E1EKZZBx5oEdZ91eVVNuJC17E+5PyYuc5TG8NDjQPAI+s0zPwSCOOnPgFfP59sZ03wcaWk6y563S2Erc50/jZT5/Mw+XEBKOop+JGWq6Q9lbjjpzHV/T7hvkw0cJSop2i0NWUh7sr90Jb2OQefzkfLho3DgqaR6gyLV0pjWYlzxl2BkYjx8xxNNWxCZhScOMGtpNSRhVBqEFhpi25+dTiaOBI62iZn9eUfI6b1Cbm0o8/uh8uFibg0lbQiddVbSoVYalaoXnxFY+PmBxnVW6+0RVNLoRVraUWSwBqE2OgDz+jDVNwytdS67tVUenflULyJf0+kYapuPR11AzO7VdEg1lbdYXdbqbnf0HDk3FI6iiWyrX0YsByqFtslvPyw1V3DU1ZScXVJWUqA2HamUX8r5u1iapuApX0ABPqhQdm3+sL7j0+5OL41NxKVWXRqgOYUQ22PWF3FmHn9OHjV3FY62i1tpraMjWTfjry1X8/pw8abCgqKcKlq6j1qtr8dbX0p6fc4aptElXAWZEraO1idXHW33wef0rgD8SATXaqp2DG4AnW3lKfPzG+Jpdwwa2OCn7uqo5pFFgDMq6vn82J403Aauooww4dbBpLXK8ZSB5W/P04uqlsKdbgFPtV0/lKSOMva2T0+5OLolhdZEeIjiwatGkEzL+Aw8/wAHy4arO4M7o0l+sU4QyX9mXftsfP6cXVXcCp2RJ43dom0KRtMpt2YvT51PyYWXRK2J6+hskj1sKhTzWUdq45YxMcm9whWVlLVtHJC6NpKdviKBbWp8/wAfxHGpL7ZtjMzJlXJah2mgCrTOpvKp+9BfP58am9s0hlis+R0N/a0qf3cwxq9s+nKVk1YkkTirlUKkZQFl7J0jldtsdJpi2hrX1nFbVNCiyDQwRIhqB5jni8G2vk8sz5jl3WKx6m9U9tegkXiI9qx83jjF1pqdx3PRjeOrB5MYj+qTHnz7dsW2gKxgWBA5acYafNeldfHQ9KMzkq4WkUpTqAFjNuyx9upHn5b49P48d4xxzusmOnSSkOlFo519IaFb/JFjp4VjzDPSim5CgnX08WL7LDwq+UeHSWmRlAopiTsCJoz8fsWH8dTyjw6TQX7dFUNc2B4sfzd1h/HTyif4T04bUMtnG2xMqfHyjxf46eUVrM+izDLKqAUkkZCq+vjgg2dfcDz4THVN7JIdJa6E921zv/Fp/wD3jTM7NMxW8QIIJftEG3OfBR6MN1iMggkyLa+33yHGRZARS7jUOBsD4Dgg/RiLDIQjNYiHF2B2tsB1wYEQWIpJFVjbgEHw+8SYkWn9T9bfceyttv8Axs4+nEPQdIDHJEwZdOlB47/chwVYuBSMpCoBA3P8TNhUhwFhXi9959/T64bEAIWLxwm5QrGnx93TYKu51QOAtrI42/kVWCh5mD6s0YAFyteNRPuMJ1WfaOkMGcT1UMdNSpNSmQyBl3udjZ/NZhz81vNi4ePVXK3fEO5elaI6qvr1WCeoiVFjBvpRFVl+W5OJlrpZv22uMzO6na7Ouw91UY56aW4xMqHndlIPm7cH14ADkSUrtIFB4Nx+ab6sXFKw+lc0VNnFDPKvEjRKwkBQT5bcgcawm5WcuLtkDpNlhAD0UjgX+8RD6Tjp4VPIA9IMtY9qkmPoEMH7uHhU8oE+e5azhzRznbkIoLf2cPCnkDl7x12ezhjJFHIjsiqgY8hsRt4ebzY1lxizO3TmSJpN1qRqdpNIiAuDJI1rlvfBjm2BlNMcvpUp40pn0ntSSUSs7/CeJi27JtoQy1W+qOkAPnoh9pjLXKRLUBuzHSj0Gh/+TA5e4k/D9hpNR3HrHw/r4CFmqGVQ8NGp/mIt/bw4RTXUdoGGkGpSoIohsPP5eAKksxK91RkjxNAPn7eHCrrLPG4Bgo+1exFB+zt4G68DLYA09GLnn1H/AN+IbXXjBiJKagYeDep9/wDHimw2ap2Bo6HnzFB/7sE2nVVoPuGhZSbG1Dz/AEsRYrxagkastoCF89CTt8Rwmy1DTSKtny/LbDxOXufpxdG4uA4Nny+gbUu1svbb58NQ3+lWSS/ay/L2AuQPU9/rw1BTvDp1Zfl5Xzepz4ahw8yy2Rny7LdJ9r6nPgm4lOKUv6n5bp56fU+S+AmVZFcBsty34Bl0lsTS7eCMR28rywrfZPU6TDRv9PFHZQTluWi2wX1Nk+rA3+nmUsgEeWZdYnl6ny7/ADYpuKwrIL2yrLiB4HLpb/FtgbX4cnDK+peW6B7U5fLv8VsQ2qVe405NlfwDL5h4fycNG4o0QOo+omU6m3v1Cfb9HDX7NxThGw05TlmnzCgmH+DFNx6BuEwZcqy0b/8A26Yg/Fpw0bN00ix0HDFLPG0cTFUSCQIpHE2Grkvb8cZ1dnpxMuaLC6xxwGQpEg1iUjV2R6Md5i57TFWiVJJhBI637R1yH57bYlxWVpZLmIrM2yyMRMhSo58ZnvdCPEbYzljqLjZt3fRM6hU332gPPf2JcefN1wbsZQp2NhfHNt8r/wC0BFbpFXq9itqe/Lbst6Rj1/h6jh+T5OWkSPQg7gEe1Urc+k9r4sd3N5UThRkvC4uWMeoWB9O/jiAEiJqBYxAX5XH14IqWGpQTEVU+TqHI/HigqRKzHtwrzIBdbD0c8A5CNFFVn1qFMW6RspJGpfMb4zbyq0krSapCCilXsAbi3DTCqf0KySuziJEZhrdtIN2mG5PwjGQzEEus667IddwulduG+7NbwjbkDiBapmeJ2pjHCiimk7SszG6KUtcgebwGGlOo5bNkLEjssAfH7tGFEE+s7Amxhb+4kxItPvY1rLe5MzEEG33+bEVWnJEMOtwfIJJY7dmlP7BgVEzFqZtQ1XiO9/epx9GCQ84c1zEsrBZwfg9cH68RSsRtSxlgD3KnY+9U/wBWAYmYLG2wOz3HotVjAK1505zRElWVuui1+fd/88J1Wfcalfmxy2GCSOJZ3es4RRmK6VOmx+He2M+O2/LSVHrIhXVlWnCgX80Kj6ML2suzMEU0c1Q0kyyhpnKqR5A1zjENjw3Mkb+11Lt6L05xTal70x7N7xHbn96k+rCdjn+nKrJX0ijsNorAL/yjjf4umM3ItSrGvKzDe7Dn8V8dtuZcDRLqDhGVufmuPhxQWGmU3uA5ZbkECw/SGINDIlhXpQkcscksWlrqmnUQU8LkjGcucWse9OvDZatlFBmu3K4pgMceXThBqcsuR1HMmufFqXDVOHhLl2vbL8wF/dUmLo4eM+XqQFoa/b3VKcTQ8ZsrtqkoMwYn+a4aFRPQbEUVaQbWBFLy83w4ujcTNPlyPGVoK4auakUu/mGJqnAkU+XKFbqFefG3rXbCynC3WcuMY9Y5izMeXrXE1TgRZsuUn1jXmx2+5cNUUebLbHTQZioHhppcNU3FBJQM1upZgLC/k0uGqcIQ0BPZocxC+I0U2GqcBNLl8ZbVQ1luW8FPiaq7i8U1C6kpSVu+9ur05w1U4EjfL2Hay/MFYc9NPTWxeTcW1ZZuVy/Mhfn63psXk4VBy0ED1PzIc9xS018SbOEK2Vq40UOZqxF7mlp/lw5OHkGV8jl+Zg8/uSmw5Nx5vUzWG9T80Zj7ZqOnxeTcW0ZXrt6m5lf+Z0+Jyu4rfKyQvqfml/5nT4cpwsyZbqHrHMr/AMzgw5OHlGX23y/MjcbHqUBw5OEWyw7dQzQ+e1BBbC7OHtGWh79RzQ+j1Pi+rCynCvDy69hR5oR5vU2I4SU4edMsIt1TNOX/ANuixeThTgZYzgikzQEeHqbFY4cgjx06QTstJmSPw30mSkp0VeyeZG4wnfJ6cTPQqyo25YxxtfUPwR7nHeVyvToeg0sdLUy0piLda23N7gDkV0744/l323h9KJl/qd0po4YLiDrYPaAHNT5l+k4TLeJcdV2fRKwkqrDT2Ke35oY45uuNb4J8LX9OObb5p0zjnPSXMEj12eOm1aA/a7Lc9IOPV+P4xw/J25xoKhmGmGdGBtqHFN/0cddsLCCTsnTKG3Jbvdz8n/VsNiq0tQXuwqCbHciXY/Jh5GgxSTaz2ZNV9iFkP0YbNDQUslrsKhWubkLKcNg1QjDLKsOZyDGLlhJa2pfObfNiS8jOgsYGVdTMUcXF7W4a+HnxqpDUyqKkM4DOmu1/akTn6DgqXlbhkF9TcJh5yLRzjGbBaUlquRyyseDVXPm3v9OLSVpA3zKM6wbF7IRy9eDfGasRcLRt2gxMJ2vy7iUYhWioPWn4jKsUcxZizCyjrEgP7cRos4qUgVSlDArooC1lSI2sFRT8fdg2HK+5vi8CvEqXQofUZ1KsCRmIFiRILA/BIcOGZ2PHVV5eSeakopIoiJZ+q1YldE4iuSFHOxX5MOGhRp6sWjkjYCJLMG5jgxbj+rjNBnJLyBDpbtrf46sYQ9E65ic3y0jnqq+fL2FcanSXs5mWXeqdIkUdUaeRaoODouO0IlHzsDjEutreeDzyjgO6WGqHUSPxH/I4NSehswrIaDi1FQQEDsqgeXI3GkFlHj5XLCRLpEFVViGNhkuY9oKQQYrHaP3Xvfz4lxLVZqiqC6WyfMyGUi6CNh5Mi+De7HyYav2u3O9JK4Vea0kL0lTTzRpOWWZbEhl2tYN5j4Y6YY6nbGTInpZHEZeOTSL2IRvoix0YsVWlkcJqRyAdNtLavi7vE2aGpqGUW7iYj+S/2WJs09l0ejpkiSrsVK9o8u78bqf7OLl8Vk5daI20jhqAPMF5/JT45NgvEdSsI5dt90f7DAeEbMAqpLy/Afl+YwEojEHSkgPpRvsMB5qdptOmORTzB0Pt+owNLCIqblJFI8Sr2P6nDZqI0MG1EHVq7RZH5fCYcNmlY1GuyqQ2/NWsf1OIaGWOQsukOp8ew32GKaEMTqQrRsD59DHf8xgaVMUhI4kcg/oN+3gYCQj7qY5AfA8NvsMRXijWC8J/zbfYYooYyw3jbV6Iz9hiIpLSWJJhcW/BjN/7jBUR7dl4T/K4X/wYnkaEMFrAx2HO/Dv8vcYuzSBGNXbjIA5d3/8A8+KgbRbXaO6nYd0P/T4CVium8QI/Fj/0+ArpWwBjXY/xQ/8AT4KnSCLlF/NL/wCnxEQVXtAogHn4S/YYK8qAhg0ac7+xpv8AqMB7hRhLcNNNvGNPsMNoqI0B3ih9Pdp5vxGKLBI7ABIrfyI/sMBVVj8EiU23HDj+xw2K6YFUrw6c+PscXP8AM4i6XihiYdmFCp80cX2OFq6N9VvDIIYbMUYKwhU76T5ofpxmXks4c/S6RBCjScoksdSj2o8DMLfIMdLWNcDUscMU8cvERmRgQONGP87EvS4zlo58VfN8qniHZeoQh1cdvsn07289sc8OJW78m10OIeSr3+909xf3GM53cjWLomWzaluBytqxzafOemCpJ0qzBX3HCpyNSqR5LedW/YMen8V/5jjnOaxBTRdg6ISD50j+yx02mlhTQy7osOnwssZA/U4m0sSaeMBAY0UeYpGP8nDaeKvVYynsa+fdY/scNr4rxUsYYlljAJ56I7/3OG00vX00UWVVjhIxaPcgAe2HmiX9vxHDHss4YUI7s6PJ0SbHnfhLjqzB6tgZNiApEptvY98cRRRfQWUHZHv/AFZ8SioGudu0FvDUknw5DCpGo7L6qKgIHZkFz/PBjKrWtSOBsRTtueR7mbBox19RWVJanXjR1zwREmyoCrOTbnckG5vc3tcC+J4mwxVO08b3YM7qNWwJGuAi/wAAYiw2F8NG1ZaiXqsl5mVhDcG972gff4brho2a4z9eDyySo6SMUkjtrTvJLn07WFjzAtholXYEU8lVFGkMbRrJUUqkBdL6RxoT5jqF0PK+IpiRNMkkbWB1OQQPdVWIvopVj/SeVkglDLULz88CY1Oqze2nB5cepCV1o118+qmOMKiSpipsuEtSSI2jEaALdmdo3UKB574mtrsOaGeaeSszAaZAXZIgezBe5KqfEmxu3jay7XONM+wJFgnmD9Wp3R2VSZI1ZivEgAHo7LkbYQ2CiUy07laSk1CIneJdjw3P7UwUhmdNDD0hgNJHFEhSdWF1Veyzgczblb5Mbl4ZvbzwxMAB1e532eE/tOGzxQ0EIRVXqw/CN4CfP58Nr4iwx0y7kU3y0/L5cSpopSMsfTdZDT9YVV1FE324fMaPoxbzidZOpkzOhKEtlzNfxMFQR87DHPwyb3Ckmf5arf8AhURUnb1q+/yvi+GSeUQnSGgLXbLISOf3I236eH8eX2ebx6R0FhfLIbHl61P2mHhfs8l3z2j0lXyqJVtvalP2mHhfs3FG6RUSxLqy2Ph32JpTuf6+H8d+zygNRn9LIFdcuQJzsaf6deJfx37XziRn1GsaNLl8RHh638f6+J/HkszhiHpFSELryuFltfam3t/XwmGRbBf4S5etj6mJp8AKTl+sxfDL7TcW9X6Ix61yyIpfyerdofFrw/jp5RT+EdE0ZPqYlh/u3/vw/jp5RT+ElE6q6Zamx5GnP7+H8dPKLp0ioCBpy6JhYcqUm36eHgXKJHSPLyx05ahAHhTN+/hfx2p5QMdIKB2BXLlU/wA3Yf48T+O/a+URF0gpEc8PLRqN7qad/wB/E8Mjyiy9I6AkAZYCxO/reTb9PGphkXKJ/hFl7C4ytdXpp5P3sXwyTyiG6QZeps2WLqB5CCXf9PDwq+UUfpBQXt6mKWHhwJv3sTwyPKPL0ioRzywFr8uBNt+lh4ZJ5RLdIcvFg2W7n3ib97DwyPKLHpFQE2GW38w4M+/6WL4ZHlF48/oHCn1NLHTtaCf68S4ZL5R49IMv1gHL2O23cz8vlw8cjyijdJMujF5aJlsCN4qgfThMMjyxD/hNlQdV6srHzAVG3z4v8eR5R5ekuWEi1EDbwAqDh4ZHlFj0gomLWoGYcvJqdvnxPDJPKJjzSGdSI6NYywKB9E91JBta7YvhZzVuUqMtiqUoqVRx10xIGHei23oIGIHIFkJAPHAv55T/AI8DZbNYAMxyk3dr1agKb23B87HGMfcW+m/0aReuVzwRKkbrCw/q+bHOzhvHtvMm1x4nGWnCdIwf4UVxVwmmGnBBYKW2fb2RP2nHf8d/5jnn2zgNIA1r8PGX/wBRjTOkxpHGyFHVbXNg6Ab78hUYeUTxeDo5DGVb+iVf/UYeS6WKx6heVL2371CP/wBjDaCoYr2EkZ5c5V/9RhtdF81Xj5LXJE8ZdYiw71drEHbvW/Zi43/qJl05OM3ju4bUY3tv72MdnOGalikjo73YiVgLXFxKd74KsWYKdZUgq5sDte0+JRKo5lLMAVNPVWub+1GFSNJjpzUM1iNMosDe3rtcZVadXWjNgpvCdiSPvVQL/Ng16LVZ01dYASR6pA3tsO6fFjL0RPCQA7dkm9t9qY4UiSfW8iC5vCwtb3ucfRiKbj1NWkCzjim9he15T+9gDZedeS1BTW1qPcW8dFN9WM5RqNF1HWJFUAkyNYegy1P14gRqG0ZllRABZppAQRyvTR/Xizqp9NSnYXTx3UkD/hDjKxk9LI1OSxAbMain2t+NGNYpl0IZWkzGYSuxJnbY76u9kQfNthpAabtRIDsQsbcvRSnFgs7MlLIukexvfb3uoH0YihzxtN0lodN7q9UbJsRuT5x5/PjW+E9tdonKjXJKGvyLyC/67GNtaU0OFskkhN9hre/9/i7TVXjV9Pss53/Df7bEq6c3XR6umyDTcuq3ub84vG5b9px0nxYs/wCj02XgRPIEiREUu7sqBQBzPsWM7UstJHLIQgjduVtIuf1OG4aFGWXuVhBNvwOX6nDyhqpGWSIQ0ce/NiY//gw3DSRloRlJh2A5NH4/mMNw08mWMzDTADcWuY9rfmOeGzSTlIRtSxdq294+X6nE8jS65YbhUp2NwdzHt/cYeS+NSMmeVQFg7X8i3+Rh5RdKepjgXFO+oe9bf3OJ5J4iR5WrKdURLj2ojvfz78DF8jxebK9grQEMPJ7u1/1GHlDxR6lsCB1cg/yNj+oxfKHjUHLyt+JBufehv+ow8oaQcrKm5gAI22T/AODDyiaQ+VBb9wA34sfYYbhp6XK0YKGhVBbygg+wxNw1Q3ytCqlYQD6UFv7nDcNPLlehLPFGwPmjW/8Ac4bh4vHLksCIk+JF+xxdxfFDZdEzbQxi5v5CfY4eUTxQctS+6R7G9yqfZYeUPFc5dErXiSI+60R/s4WG4aDagi5rHFa/laY9v1eG4aT6nwqSyiK9vERfZ4eUNUN8uRjZEg5b61j+zw3DxpWXKJHtw3o/j0j/AA41MonjQEyWoQDhSUTWvq1kfu4vnDVeGTyxdtpqBLDmzrb47rieU9GqYpcrM3FenloZkh8sq0TWBNh7U4b0aO0lDomQl6ZQLmy8PzHlaP6cZ203MipkfK6F+GpbgICeCpI2/FE/PjlleW8eYfjpdx3NiTz4P/wYm1kUzqJoarJdaj7vTe1vanbyVxcPaZdtHo0D1mp3HscPx9jHPLpvFtu4Itb48c9txxOfTRU3SaveefgrwacA9sk+XbyVY49H4/jHLLWwRWU+hWFTO2oHdUqD478o9sa1fSbT12GwLTVSbbHh1P7mGsjaOvwgIRPUm+w7up8P6GGsjhc18Ba6zVZ258Kpv/Yw1kieu06nUJq1fEjg1I/wYayLoDPKuGXo5X6XqL6N9UU4HNT7ZQPlwwl8ptMunEKxaFrC4VXtvYbxDHfTmbqkD1PdHSuiXtSWuTrN+Xh5sSKlmCKdBBOlwSwHv/LCi2svMAq29b1KNcjfuwcKNJ5A+aXBuxSYHbb7pU4yq8gK07jx0OLn+RUjBfRWVA1fUoNQdszQEW88TYsQOL2FSFOoRLf+pTnC1IublZFI34bDb+RUYgbtqq11EjvQdtr3nT68FXy+4yisDsAvUARbz8OH6sZyajXNzmEgJ09+1rC336b68QZ81uvZKVHOpIv5700WLj1T3GnTArAptddKX39xS4yRndLARk6ACyipgsbe6mGLj2ZdBxhnrGsoINS+58PXJ+vGmQ4NQpFI3PDS/wAHDpj9GBV5LrDKAD5Di/8ARqgcFDYgdJMsLlI4xLU3ZzYDa/mPn82L6T23Vly8NoFdTkEclcEn4lh3xyjShrMvDW6ylxzGhx8P3nFEJV0Vxw6gWB5JExuPh4OA5vMGQ9NomVjZkQjVdbgxnzhbfIMdZ8WL8mi0cD0dWl4izU0uwdSfJJ/COOc7jVRk9ZmFXQ0ccmZ5kJZlVAFqSoU62QDly2GNWTac/bEps9zmapSm9UMxjmaTRbrD2UeN/gscauM1vRLd9trM6yeCnqZ4M1zbRHG7pepbexjtf4eJ+zGJr6W7+zkslQ0qpPm2bRIkmi61NtuIFBPxMMLr6Jv7Yuc1+ZUENPJDXZsaWULqc1BHeFA5HyN82NYyX0mVs9j5RVZlmFGZanMc0ii1aYXE5JkOtQ97+ADD48LJtZb7HkqKuAU8bZtmqRtUQxsRObhXaRT/AGBicfRu/Yzy1jU8knqpm/dxFtXWfKISQ/tjtjPH0vP2z89r84y5opEzLNDSyO8asak31I1iD8xxvGSs5W/aMlqM3roJKqfNcxjgDmNLVBBY6Ha/wdm3x4ZTH6Jb9mswqq2loqqYZpmrGNHdQao724X2hxnU+l3TtMKmerSP1Zzjh69JtUchrUbbc7NiXX0strmqzO86pqmSJsyzN1WzK3WiNSndSNvEY6zDGsXK9NSgrc0qctFRLm2bRlgzLao9qNAB5e6+b0452TfTUt+0tXZgK0U655m/sLOG6x4ibR5vNvjWp9HP2ckXM2iYUueZvNMbtEhl5kIzEfonGeOtHP2xcsz3N6+oMfqpmqoiGRu/8gD4vTjVxkm0lt9tiWXMlqBH6uZwRxNB78c+K6eb3N/jxOPpefsrQZhmlXT08xzrNoxLa4EwNjrZfN7n58LJ9G79gZtnGb0PAaPN83ljlQWtOtw1gSOXuhvizGfSW37FyXM81zKOSSXOc2jGtI4wJgdR1qD4eGoYZY4wluuxvVHNS1Gnq3myrPNHF7KNtS3vy8+JqG6vDV5nUDU2e5pC5j16WlWxOhW522uWtiSRZv7Yx6T54JeD6o5qJdfDKcYXvyt5PnxrxnaXKt/rGagOgz3NtSjwlTYgyA+G4vH8+McfTXP2Xo67NZqaOeTPc1S8XEtxFO9pDbl72Plxbr6SW/anSDN80y6aFoc5zWSCQNdmkW6sttQPZ9IPwHDHGX0tt+0VFVXVuT8OvzHNJOLGZZIDKtimnWo8nmQt/jw4nUTmwv0djShzXN6YOyxx2UHiaTYNt2iy+fz41ndmEaizoZCBMpBuNplN9j78b/IcYUzkVRTQZTRpNPThBCptJLGLbeYyA/NjOUaxORVNEshK1dBYi3s8H7+Maa29mUsDz5SIaimmJr01BDGfA/gk4uE4pe41MgISsYFSA0Kb2P4A2xjK7i4NsmxPMY56bchnSV0nSSuNAkbydXpgyyVDwCxLgG6m53I29OO+FnjJXLLdpfg9ITECtJlzDyg5zOZh/axd4/tNVR6XpAjMTS5WFAJ+75vT7r3Jv8Bw3j+zVXEOfsAOFlWq9rCsm8SAfbecj5cPLD9rqqCnz0KSYsnUhb363PaxF9u18GG8f2mshWp8+5FcpUAkm9TUX2v5j7lvkxN4/tbL7LZ7HmzZLXrWrl3C4XOKWVmBDKPbm3Mj5cbxs8ppnLenDL5DcT8F+R29iGPQ5GK6K7l7DQhmUDa4u5I/ZjMUZr83IYEGwFvPOMKPM1nUOoBMFQBsNxwRiDSmTTmALDSOHORYC579DviKI4BV7my6XtYb+TVYi+gpoeHVVktQyxxwVcFWbi7PGFsSAOdtW55DxxUsSaZ46eRSVbRGDqUgi3CjII847OGxaojsZFAGkqy+n/WR9GGw3TALUx+N3Bvbf2WnP+LEtFquk9TshqZp5owstH1dEI7TSjSpC77gBdzbnjG9ta0eKWrX0jUOsEb7279/rxRnTD1zkXmarQW8PuaLFx6qXuNGnIFMl9yYlNvyVOfoxlot0mglnyqRYF4rLNExUeAEk9z6dsWXSWbDoGgmr1EEiSrLUaqeRb6ZwZ1dlHu137PiNxi1lCqFy4kL5ESmw8e6j/dxNrYYq4Azutio4kqcvdVQ+nFna6AqIpFzzJnp4xr4lQVAk4dzw0PleHPFlmmfbZapzl41daeAgjYPmrnnb8ED8Jflxz3G/wDr6evn40nhZaUHJlzGfcC5Pj5gfkw3E5+hA2eIF4VPljNq0BDXT7HVbDcW7+nJ5ks/8NaaWqEKTNFGzcN2Ki6MRZiQeXpx1nxYs3k0o5S1NU96W9bym3Fv7Q+HFP7MYnbVjM6OLry6iZSWCuAdj2Txif8AEDjeXFZxXy2KNM+qKm2qQ08W1vbzQku3zbfysW9RXszbVk9cxuwaBgukcuzS4zJyU/2J5oDtITIm3m7VMd/lwvej0Qqe+6PzxMrSkwK6RnwZY0IPzHCblL0Zpy0VDDCIriGI6I7+TeOFzt/KucLElDzjTSQwvLJGNVZFa58oRzTFvkBF8MeS9iVMTxQupUdqNiL7hlK1ViPQdsQvYPSFQ+T1BA5SAkc/vo3/AEsWFMIOFKlMqIBDpiQBfASTL8tiLnE98tQjmhAyeqlnITixmJVPNneOnYAfEpONRnJo5TMWFHVxNrSSRb6fA6oAQfTcHGclx4ZOYUwr6bJ0lUpLxEpC9u1o0A2+W/y4uN0mRuWZ3pkCrwzwQbAcu6hNrfFgBSqE6SNS8ROOIZo9AO4Yysyr/KItti3pJT8xcOUsUZHcXXn5NQAfmxhskSIanOuFCsReeZbKPa8JmAHovc41d6ZnY9RLFHVVVTUSCOGKaSQsRfVaoJCgeJNziz9KyejrSPHToQujirEmk3udTMb/ABEkfHi5JOTNcFlyV0kDd1CJ1PmYRwW+YnEnaU5Q6KaCnp4t44bWf8Il6dyT6dziVqTgKfRBFl0lQVjQzQupJ3spIZvgGESrzIIqeUKNTLEQ2ocuxINv6gxJ2Fa8h8660VHGEVTKzgc5ELBWPpsBjUt0ns9JOsUjSBW4cLu7+cDiS/XiKSy1glCoQghFSOT2xViJPoYYtWGKkLV0bU86h0cqw9zdoQbfE2MxatUyNKWDEDXEBuOQ4Uq/sGLwm4T6OVKVOZZjPTrMHkW+lBIxA1D8DfFz6iY1sKZ5Hs6VoIDeUlTbl6Rb5cYbIUGf0NJS0yPlNVNIsKKXSnhIJsN9RUk4XHftPL6MjpXSiTS2RV+sbaODD+zh4eH7WZGYOkMWa1eWRplk1C8ddGQzqBquG8yjzYnhqL5bsjpcs0tV0upLOy6dXn7sH6Mcb03i3mj1qLtbHOtOYnk0dOatlJv1Sk2tue/x1nwjF+SrSkUg0gXWG52592cSfpV5WPEYe7Yb8/KnGLbU3UwezrdWPbU7/wAuE4c/ah8X1sCBqdovN71ghhj5RCkEuwNxy3nw3VZfSgn+D2ZWU3FOxuRtzhONYW+UTP418+jXuCV0yd07Gycrxb3+DHqecxUAFmVFLN3xIC7jtNgq8aIW0jUfKJIXzNOP+vgxKLRqpmjMfaIhqTpte3cLzw9DQmKLW6kXUwSqNrbAcRDjN6XQrkEyaed3BBH87xlfRngs8iMjcOdXYwPpBCOWjTtA81IazD48NkTVQ01HF1aF6anFmc086zMoVh2yhUXCX8kG+xvtfEhYX67Ra9ctXlAY72ZqlfFz+D743y4tgPFmmVxEyS1GWhFRl0088rSvsmyhlAv3a7323OJqrLEyUzTmSvzCNOttCeDEDeOljMMjIqD8IaNz58Xek1vs9c9fIUNvUE3I9/8A+eIrPYEVmQhW365Dv4fc8eLj1UvZ2lB6qDbSOCCCR5oYT9GMtNGMaKgtc6gzbjaxvVYDNzjJREaivy1CVJDz0qdnURps8ZHkyDVe+LMvSWMmszcktTvU0rx8NFZ5KSUM10A30m17bH03xrxnbO6ZGeo0hbreUFnYvcwVI3JYnw87Niaa2JDWU1X0hyWZKuKeo4rRcKAMscMYjIAswuWJ3J+DCThPbegOmniDXJ4S7n+RTnHPTY7EdVKW37YXfmNM9v2YaBFJ61qLDXx73/Kp9eFi7cPnBKdNKA6tJNPBcX97PpH7cdcPi55X/poioL0tUuo9qnlFuMp9ofDit+zGZ2Vz3Qp5DmYokVzHOVaQA7IV3V/lsD5wbY659M4720aAXzGYA6QYaK97/wAWcZ3wvsDOqp6XKaamAFqhlmLeBCxRDSR/K3+TFw5plReh1Q9Wi0xhKrSPGqyW2s8ydlvT2dvRfDOapOZyvIA2Vtp7JFKQNzuOrnb5sZi3peO7UCt5LdWBLeJ7iLC0kY/TFZhnbrKQkJLmmk7Wnh6j8+rVf043gxlTuQyVUuSHrLgxLIywEjtW4Uu38m97em+M5a21iLnbWyytUjmCS35SHCFOSJprmDHUUnNz8Mz/AF4w0xOlFNO0VHURjVSmOOJdItaThpe/pPZ39Hox0wZyG6KwzUtC0r6jHVTQsqWNrJMi6wfPckYmfZjswAeJlSkhz1qnYEX27H/LCJaPQF5UjVZGjdoAiyLzUmBQGxK1HLmgrlzUUIRlq+OBqubh789Xm8b46cXFib26+rnWWTiHXJriGs2sSwWou1vSbm2OenRnzOXnzNrkkyN4cvWz4rPsPpLTSVFL1iIM0NPLKZYlv2dT2D/AbW9GLh2lU6HQtHMtUXYQs/DSM+2Y7aiPc+fz4ufKziLVBL5XKoAN6W1re8w4zO0vQyuQiamKi63Fvc0+JWpWXn8kgzWpSSKRIYo2jp0Jv3V7gg+nn8eOmMZrSoZzV9HuJIGWUK8A7OzqsUhDfD2iPixzvbV6Cr2BzIEbd3WXt5rtiycMzsfO3KZPWSRrqMjGNtvJHGbf4+WE7W9MrIpppMzeIhlhkjLS23toQkN8X043lpMby2NYCC62AUXt8NPvjm3xQszSQ5JLw0uzMAxB7WgGTVb5viwx7TLrgl0O4RqK3iBAnBF9YXT5Q8+NfkZw65bqikEq8JKQtvZlMV+XwYxG2vlU0oyCjVZHHrVfE/xTH6Mc8u2500GldqhyrONytwT+HIPpxnas/MpHaryTUzG+YIRe+3dL9eNTpL21KOy1+XW3Abw5ew453pqduj1Hw7IxzacjVqT02qwp50dNcG/8eMdZ8J/9YvyehS9MQN7Qi97/AMUcPdU5IA8h5C0jcx7ubBKmFC7Rnl213A25w4KCovTkEAHhb3HjwjgGHIEzKpt2zc+ftTYDO6QhmyOvA8YmABF+ZhttjWHyjOfxr5zEo6uRKeGyo/tTueEdvRj1e3AatADSKQqkCXTz7XaJ+nBR41PFuxKDUQCFJB7c2JRKqzNGRGIwEnuSCOdOuM0N1Wp6wMe77udmbfcBo9/jxPTZyVhqdVIBDsNQJ37VUMQpqBtZhJFiJE7R8e9pz9OIQKGodaRUE0qg0xFw5H+rk/tXF0NWarlNUyyO9jMV3Phxph9XyYil46kWR2RCHCt7Gp8KY+b3T/1jglBkciCQNpKlGUC/mjqsRTdx1ob7moFvT36H9hwRnOO/yEn/AG2nA/8ALxjGp1Up6Fb0A7VwIBtff2CP6sZaOEAyyjkAXt6e1U4Bqme5jUmyCRTa/uoPrxlULK4I7blVRjzv94Q/QcNrYK8siyhUe54jrf8ApzD6B8mHKMuvbXnORk7/AOkJlNha94kI/bjeN4ZvZhCxpoww34Q7V7fe4MYnTV7MzMFEgF7APYX9FR9WKVdWLVC6ri8oNgffY/rwHFZvdumWXEX1dXgIOo/gHHTD4MZfJqxl+r1AaS4NPJuJDYdhvTjPtay+iCpFQQsgGuonjLtzJ0zBQPg3JxvNMek5WNWazRs2qSOKiRxfyWUhWB+C+J6SdqZxAJskZWFzTBagG+4tDACPjDfNi43RlDGSQdQpaaN1biO6yTEH2wlgsPiV/nOJbu8r1AZZ4qfJnnqGt3UcCJfymkidfitzOHd4L0vRyR1eR089N5KxNC6F9wyRD9oAI9B9GJeKRXpGkdZSOJAbJUJGhJ3XVNKrW+Gw+TFxTKcGZAqQqnZRYV4KorclUVKD9mI1CXSKVIcmqSzANUM0MaX7RPcvf4NrfDixK1apEleKppypincSIwa4ccQG/wA5xnX2s6ZVU+vo5WKxAK02pQT4hKfGpWcjcD6RDBGWWON0VUDbaRLAwH6Zwvaxm5jVdQgy+a5PeQzKn4aopv8AObY1Ga0UQU6RtGwaNIkkWx5jhKQfmxjda9k53MGcqzPukBUXO4AqDjXpPY8EDzziNDoLdgszbW9ci59HjibXbPy6rhq8yzCGO4WVJJo2JPa0xOtvjBJ+LGspwzLzWtGStSwUlQ8xBN9iC7C36QxlfTOyNtNPQPIbXSEfyrTOD+0YtIrVjg5M0rtYGNI033LNFFb+yfkwnZejQCVFGlVGC0bm1wT7UQhvnU4zeyfpFcsdT1UVI1FZI6cX56GZgVJ83Zv8eLCqzyNNTyM+m5jHkiwFoJBsPNthQvmziDOlppTv38WoHyWlvp/tD5ca9J7ackbIJEqNwzukkZPlDiOCD8oxmXlb0zcnjRKRGRGLzhWdr3sCsiW+Da+LeeyRDzFKDjSklFOki+5NoWt8inAvByNpILTR2kZVaRFvcMGWY7/F+3E0s3ot0fiSlzvM44i0arF2BqNwNSm1wy+fz4uXSYtlZGeRdU8jXJ7JlY3/AF5/YcYjZvLDbJKbRsOqL2fyLfVjFnKzpoo+mpJD78U3FvfW+vEkaZ1ex67kZbxro+X4lcXHpL3GtRM3X8tDfh8vyOOd6qzt0ouw545OmnKyaf4cVhbe9HS2ubffxjvPjHO/JMNlp7n+J2F+XdNiKZl7M7+biNc293LfEExk3TtG2pP2wYooU9bm9yOF5+XdnBBJVAmcMbgud/N2pcFZnSEE9HswA3Jp2sCDubQkWxrD5RjP4uAkWNwZFGniIz2BJ0kwknHpcU1RBmlFzMDFOb3IsfTiq0KaAvUMgu6LLfnYKOLIN/lxm1dKVVJNTNScQX4sUpFzf/VwLD41O429OJuU0Yq1XrMZLK4aOq5MTbaI74el2bK2qJNVrCRgov4a6nGT0JTnvIi241KQt727dKcKQIBRThm5CAiw2v3E3o9GG1PysBVEjUV45sDuR64f68RKDEwMMPgTGlgT46KX6sWdj0+jS/PyWAB/k1YxlT0ZvVLYWPGBt5u/i+vAZtQQZ8gF9+u0txbzwJjU6StCEaaJNIvenBP5hfqxlo5IxNRJqts7/wBupwBKZg0kZBPlrsf5VNjK1B0ike4DNwW3B95cfRgptu3VFudpjYcrHiyYIyswA9U+jh2JNf8AKTTpjWPtnLszD9zxXNu6Xbz91DjPpoWeyrK1/wAMADf/AGnFBoQGqVePkZQb7fxkWA4vNkC9MMqUNfVBALWub6T6D+zHTD4MX5Ninp+xKFp5FJhlBBpyvtG29jFvlxn2uiHRKgzGTJopIKNwigvTuXQXfiBrm5BABX48ayvKSUtR9E88oMxStp54UnjfUGMqb+e41b3xfOWaJje2tWZHV1NNUQRppLw8LeWM2uka/hb+RjPlPpdCjKK5pVfR5LAkmWPwMJ/C96PyjE3O01SGZ9F83qhTojQBYEK2DJY3vv5XmsPixqZyHjVck6MZrlxqBLwpI5Y2AAlQaX0kBh2vT8+JlnMiY6OV+QVtUGES6HaoSW7SR2AErv8Ahe7w8tNaHfJqyV2aRdRZj2zNFyLSn8LzSj5MTcNM3Nui2ZZlXrU64k4aLGiB4yAAAL+VzNr/AB41M5PTNxtNZPkNbQ00lPVKJ+0rRtx4lKDUGK+V42HwH4cTK7vC4zXYU/R6tmpJad41XiRGLWJ4j7VFv5XuL4kuiw2Mpqr61pmDKwNzVQjlwj5/ev0sLls0zMz6I5hXyo9mVY0EcaGohOlRvbyvOTizORPE3RZHXwZalLJTq8i6l4gqYV7JUgAjV4XPxYnlGtA1PRyvnrDK0G/DdPZ4eZkLg+V6bYvmzoefJMxekqIaenMT1A0azPCbKXdyB2vEPb5cPKbXV6ZVJ0NzWmqYqhNXEia4XixcvN5fI8sav5JeGZjW5LlNa9UZUoXSFZS4HWIbhdam3le5OMzJdFaPo7W00VHA9NKeDYFg8XLi6/w/Nth5HiBmnRjMq+KngRGjhp41S2qI6mAALeX6Bt6MXHPRZVsr6M5nQwVNNLDNJE41RENENDm1z5fIgfMMTLKUmJusySvmdZEpZkXjxyntRbBXdiPK90MTyWxFJkVbTsC1JPKqrpIJj7Q0yD8P3Y+TF8k8WNUdC84qZGllSZpJGLsxVfKP9PGvOdFxbhyvMJRAZKKpMwIaV7R6S2sE27XjY/LjHlOzVAy/IMxpKeBJKOrZ41C3VU8Gc/heZhi+SyUhXdGM3qIaeFaOqiSNBclFIZ9AUm2rzKMWZyJcR6Po7mkFCkMtBXPIh0KwjUApZ9vK8C5+LE8uTV0Vyyhr6XPq4VVJNTyvTB1UBmYjUouOHv4Y1lZTGVorFVPOndVmm+94amxHxnGFHy2zZJSefqqgfmpfqxmtTponSavY/fb6vyv/ADxFrPq79eyIlQD16H4D3K4Y9WJe2tCxSuyoNuOMBt+JOMa4rU7dK+pdzoUnx8+OWnXbmKsr/DipGldqGmsWNvv4x2nxjlb/ANPAA05KsfYT8HsT4ybOPfjP4jiNc8/byjFUKK4kQDYFlIHx0+AqB63A7Q7rn5+6bBIYkS8zWuO2b3Pu5MBldIh/3fzC+pmNK4/RhO2NYfKJl8Xz7XqgXdFZYyWFzqJMTA49OnAxTpG9eizStHG4nEgROIzjbZV8WN8S8RqdtXrUjXEHDoEN2LPpknJupNlHYQnWCL3O+Jo3stpUTysgZpnUhp5X1yNdZ1PaPIHQNhho2mazy9m+0FWTfb73GcQaTxev3VRc8Zr78+9qPrxGtIpkZRG4azWX0betDgkSUvT6RZWEZBudr8KpH+HBTTLetIG549xc+eo/92IUspPVYr7Hgp6fvVN9RwSGJI2tIrc+2L3/AJ2MGtHKI6qlVJNy4cb+HGpz9OImmXUAJPkmxKjMKXe+/sQH0Y1Lwll20ozbLUAsQaa1r+8P+7jLWjnD1SldRAaodST6ZZh/iwF6MWjjkK3GkMD/AEadvoxnfpavOiilKg6XWOQXH8mdR/ZxIbMxaTVPdrnjWI8wMxsfkbDayVh1gBq+jV9iK2Pn6YE+rG8fbN7MRlurIwubRDf8jFia9FHbaSYX2Bewtz7VVh6PsenDM6E2Hei/5yHEVxeeBE6Y5TxgdPV4b30+ZvPtbHTD4MX5NKOelis0c9AjgbFXph6PMdsRQxLQ6QokoCvKwNPt+jh+6J0UO11oPh00/wC7i7TTyRUZXU0dDa9vIp7/ANnE2uhHjolsxioAo9sEpvqxBAjo+GCUobHcXSnv+zFNPPFRkElKHSCLELTb/NhTSghpL+TQhfStOf8ADiKsEo/waG3K4Wn/AHcESI6O5ASiKja+mn/cxR4LREnsUVjvstOP8GAmOKhCjQtGV5W00/7mIJEVGCbrR282in/cwVVYaLR2EorDfyKff9DDZFVjoARpjoWHpWn/AHMXdTlUxUV7cOiA8Top7/2cNjyJQ3AEdGRvYFKcf4cNjxio1YXioR/RpvqwFTHRfxdEQfc031Ybgl1y8EAR0RJ9xT4CClCCDwqG/wDJpsNiDFQncrQ+ns0314hys8NCd+HQW5js0314q8qGPLxpulBv6Kf97A1XhFQg6SlDbw2p9/08E1XlhoCLFKKw9FP9pgcq8Oi21R0RF/Dgfa4HLxjotTaoaTSOXsO363DUXVW4VEqi8dFY+cRb/JPgaokPVEkdI4KQBl0taOPcXvb2fzgYD0cVC0sd6amVtfgI1PPn7PibDeUgnJKba/cAc/czj6MS9r6aC2apDcwJRdb++Rnb5cZUhWBmfJjp2FfT7ejhgfRjWKXtpxuUrMpBJIFTGv6tx9GMa4rU7jq2YjydPwnxxybcjVAfw6qWJFuoU5Ow29cKBjpPhL+2L8l42ZqY2Atwdx5+6kw9l7NutqhhuBxT/eSYLO0IVQQlgVS4Gv3WmFh8N9OLJalshzqSywSKiMhaPTHc8uyR+w4WaSVSWGVJtTg6WkJBP8tzb5CMRpldIww6O12saL0jkG3PsQ/Ucax7jOXVj5wAxjRZCWGghL7XHCe2PU4Ro0btHOA7OA0y+SbffFBv8uMqDGSIEEqkqsIIUEbd1Gd/kwXZ6FNday+Ck7giy9upAv6N8QkPxZdLOiytaOnEDqOKdPE4iIpsNmIGk78vhxm1oaRKjiiV56AsW1+Qw31M34fnY/LibicqxrMiquujCAWHYN9ggH3zzRr8+G4siXSd0JL0RUgi4Q+IcfxnvrYu4aWLVSrdZaK2vXcoeeoN/GedRicAWmZYljElEFVQoupvbSq/xnmUYcAzPUljaWiuxLHsnzufw/PI2Aqs9XG8UkT0ZkUG9wfOh/D88a4CkpqJ2piz0ZNPJHOp7Qu6Age25b4ssBOsVZjEWqgKheGBZuWll/D8zn5sQGXMK7WGLZfq18S1m2OrV+F5zhoGirq5KcRh6FSg0g6GN9lA9t5kGJqLugtV5gdTPLl9muBZGst9ZNu174fmw0ciLW5ihDCbL92U7IxuAwYe284GLqJyDK0jVeRCdoGWPMI1HDB2AjI3uT5hhIHoAkdCvlG8IuOX3mPGZ21ezMjWMhY2sXvt7qpxAamJ1I6m4MikXHvkH/PAcdnSMemOTMhK91B2lsNO7efxx1w+DGXzb68ZVFs3r/iqYfs8Y2oyRyqrGDNa4Fj2vXaHf81ibVPEq7EHOK5/MOOgt6fYsNhiM1IAVc1ryPD1wm36vE2ug9dUXI9Vsw2PLrMf0x4oni1NgfViv1Hw6xHy/N4bR7iVS+xZtW39M8f2eBtBlqQ1/VeuuDyNRHb+7wVOqrP/APtcwv5jUx/Z4Gng1QCCM2zG/KwqU3/V4CS9SGuc2zHfzVKcvzWGx4SVFyfVbMQR/vCfZYCxeqYb5rmV/N1lfssBAkqT2vVXMb+YVCfZ4G1DJUhQDm2Y3PIGoT7PEEl6sgBs2zBX8xqU+zxdirT1KMo9Vsyvy2qIz/l4C2uq029WK9T/ADiM/wCXgIaSoIt6r19lN/Z4vs8BXiVdu1nFdt48eI/5eBpKzVN7+q9dt5R48P2eAgzVQJ05vWt5u+g+zwNPcWqt/wCMVpH42Db9DE2ae41SSQc3q7/jaf8AcxdmlWnqW5ZvUk33u9Nf+ximlTNNqB9Vqjl4tS7/AKOBpVaicsv+lZNR/mv7uBpUyVDOb5m7G1rlaTb5sTZpbizX3zTz2slHiWmltVRa5zFNR23goz9OJasgkUjhl4mYQsQRtwKT6GxPa1n5RZsrpQNjYqD5+1MPpxu9s+jkXadTYBiwYb+F4T9OMrCGc3hXL3II4ddTH5iPoxrBMuz8zKsuXMrX01kYFmAH3wfLjPqr7jq0LPtpBFgdm2xysdHL5kAvTqfyrdQgJPj90Ljc/wD5/wCsZfJfS6w2JtphNxYD73INsPZ7aCRnrDCVCTrdlsNriR/oOGPei3TF6Qx1DTrwqNqoaVEStqVIrY74akcst+m5QyyCGPjDhyeWURiQoIJ3v8BxjKytSXRuesJOnlq5C1+XnxNRd1WZhUQSRTwGRZE0lXXslTf/AKOFmuTbhOlWQJRGStpXhih1XWnK25RspsfE+NsdccuGLGOis00fBDSHXdlKiw7yK5+TfGmWjlGS1NVDGyqBE0YQuUIj9jCkagDe1vag/DjFy01I3KfLoacq4XiyXZrPFdFJJN1X4Sd2JO/hjFytbk0YEUjO5E07mwvq1/N2sTiGkLTst+3ICTfk/wC9hs1ERwMrizOp8Qdf72KnikU7i3acMRcbOR/awNINO7yaQ76mPIFwP7eB4x5qdrg69LAbeX+/htdPcFuTSsDa43ff9PDaKyRNe2ttxsAW/fxdiFpmYBtRABsbs25/r4bRHCOkd4AfHtNy/OYm4rxgst9dvSXIv+sxdrpYQuq3WRr2sTrP7+G0r0cZKNd2YbEdo8/6/pw2RVFOsi/xlz9pgB1COtXkgvq/0nHckk27LeOo4uJVzaOjQW34IIv4Dgx4xF9mXcmWQEnynHLbyqn5sU9maRzxYwGB0yLay++QYhtyGcxlenGR3BBMVPuPhb046YfBjL5Op1OANUs4N+ZmYf5+MN7WaqU7PMitfctOAPnnxCqCqh136zAee4ql+3w5NxLVkXMVMNhzPWV3/XYmqbixqlNiKmLVy1CoB/zsXldx5qixus8WnzmoH22CbQ1SoF2njsOR6yPtsNVUNVLYHrEW/mqB9tgaR1gEaesRhfOKgfbYInrC3UdZhUHx44+2w2biwqEIPriMgeJnFv77A3ELPG52mit5+sCx/XYapuPdaUWXrEBX0VC/bYnJuI6ymw48JI5euR9tiqjrEdwwnhJtz6wv22G0StTGW+6Iif5wPtsXcENPHdu/h1Dx44+2xNmnusIEBE8NvTUD7fA08atTqIqYzq/3gfb4aojrKkHVUxb/AO8j7fA2oKgCwE8ZH86/+fDS6WNRGNjOnotU/wDz4CesAD2VdI22qP8A58TYg1RLAdYUf8Tv/f4SiOsMWNqi3nAqef6/F0aeMzW2kvt4VJ5fnsXk0laiTTZZGt/OD9tiaqaQaiQi6yOB6ag/a4aouJqonss355tv1mJVXZ6otbTOfSDIb/txNjyyVSMNSVPO333f5sPYzMnuKaFbWCTutvN37D/Fjd7SdDI7rArMwVNKm5HuIT9GBCnSM8OnicM/dVdO29rWEsgvi4dJkarnEKQSAEJFXQtyA++uD+0Yz9xb6dk3doNNhvyfHnyydpHPVMZk6bzBVLMMtjvYX+/gj/r0Y6Y/DTF7O1sSU9HNJUdgFNPk7i4Zf8WLJbUysieLDNTPICpj1sQWtuSbnHSY6Zt2ZhqODTKermS+yhV8Li/zG/xYxlbsxIvHUPFLqjcyGMqTotewmA+j5cTTexBE8lSxaJtLEgEjbeQH9hPyYbpqGIwFQkXtz0kbjba4x0Y0xekuReqUcc5mSIREka9Wk3Urvbl5XMejCZaZsXyjo5RR07GWcV7crCECJTtc6SNybDc3+LEudrWOLRqIaGmKg0yzSFbsSxT5gLYxu1rRKVY3kJMSor+QoN7D4bYppARbC6DlfkLfswNLNGpjUuFsRtYA/RgaijppQa0XSu4Ox+jEHljQC5VQL3BFvqxUSUGjUqKfNy+rBVlVQCdIN9udsBLKANWxB8PEDCUBYLrGkrceZgPpxqVHjZt/bLvbV/7sBfSoHIbbkcQC36WA8ShClmW3oYXHm9tgu1XIa3aW/m4g2/Swm02tdEbYgBvDiD97DQqxBIOsKSbeyD9/ApPO5ljqciOrV/pOK9mvtYg+J8+LhGclko5upNdJiBCAAVN9oQPj3XDFTDRSrUNE8MhHEYbIb7yVA/YwxFFo45BIw4bKokU2Kb/6ufi8cLwkczn9DLJ0uoGQERUlLHLMTa62Z9rHxO22OmF1jpnL5bRMYctp4JsyWFI9ah4jSosjIfG9zY+I+DEk2b06AZaiWb1LpGQjm0t7j4osY3WtRUxxI1vUzLbHazSN9li8iQiRuCuW5cPyjXH6rE0phKmZUGikottwBK/2WJo2k1dSSFNNSDzrxm+yw0u6o9XVOQBTUlwdryvf+6xfFOUtWVYFurUZI2uZH+yxNQ5eWsqydqal9I4kn2WGobeNXU6gphpvPpMkh/ysXUN1dauqXnDThvxknz91h4w3UJW1diOr0wPPaST7LE8TdQtZV7+t6bT5+JJ9lh4m6kVdYdhT0wHoeT7LDxXlK1dWAAYKYHlbXJ9lh4m68lbUkX6tTgjzyS7/AKrF0bob1dTIApp6ex5jiy/ZYeKLx1dVbR1alFvdyfZYlxNvGqqGOnq1N6O3IL/qsNfs3VGrKgGxpKS3j3km36rDxi7qOt1CPZaOl8/sj7/qsPFN1HWpeIW6rTHzlpH+yw8R41k2x6rSXv4yN9lh4ihq57FmpqR/RxTt8Hc4SCgrHA2pKX0Djf8Aw4tgnrmpt6WiPm79fssPH9m1DUrq3oaPUfPOn2WGv2aS9VGyFGoKFydvZ4vssNfsR12NbBqKiuTvaaHb9XiaOETywM6ocuga59pNTnf41w0bgNXNS00P/hSNIwPCVFp5CSPOFW+nznFkvZbAMk1NSnWFV1qpAQosPZ4zy+PFy7SCynRGbkBUgFtS7exN+7h6CnSyQS5XUyR84WDkj0T/APuxceEpzPdS5fWFmDBDxL2tssyN/iOMzutXp1tQ2tlO3K9zjy53nTtOtufpstTO62TN83pFj4iCKKBixKRLc6iQR2ifhsMeqcRxvN21oly2jolggnpoAoJXveRO/JmxnVJJZyzHqlYC0qmX8MSRaAB5l4uNS0sxKVEFNVyNLULRyMR5Tsnh8E2JynH2hMvy4IA0NARYm2qP7bDk4+0DLMpuPW2Xb8r8L7bDlePsajpqKlkZ6WOggc+KGIH+9wuzj7PmvkAGmopiPJNuECP1uJyvCgeFlN5qc233lTb9bhqm4hJ4C1454T6OKm363DVNz7eSeEtp61CWHv0f2uGqm/29xodBHWKZx5+LHY/rcTVXc+11kgJulRCxHgJI+X53DVNvGaA2AqacnwAlQm/53CQ3HjNANPf048bcaP7XF1U3EpUw8S/WqYWO15Y/tcPGrufbyywgH1xCD5jKn2uGqbVM0Wrt1EBNthxV+2w1TcSXRx7IhPgRIu367DVTcSX3txFHge3/APNi6q8PKQxtxVA/Gf8AzYaqbiy2Di0q/AX/APmxOTaGYoQEN2ubnijf9di8m0XJO0m9t+3/APNhqm4kFl3WTc72El7D89hdrwXq4ErdArI45xE2tOIA2lvPfi7bYs3OkukR0ECsG6vEhbla4/zsN1JRZoiD3Udybe2YX/XYaW2ALTRM0ivDNI97ndu16PZsWxmaZ2Z19HlgNPT0qx1erWwYMCptsWu5DbDYE2AuTtzuONqWxyi1iZxmg6wwkip1adix9k02IFzyFz8fo2A661GZd11eS18E5MRkpI6jmdIXtgePZkA+LHLKNytfsljdktzF2H22Mba3Hi6sQNQuTtZxt+uxBHEQbtImocu2v22CbiGqFIALoD4d4v22Lqm4qzxm15Fv4HiL9ri6XcTrQCzMgPgeIn22CbiGlQD2SK588iW/vcZNxDSRg9p41I5HWn2uCyxKSotwXi+Nk+1w2biwkQknUjD8LUlv73F2biGkj3tJER42dPtcWG4q0iWI1xG227p9rgnDwliJ8qI/04/tcLTh55YyRZoyd99cf2uBt52g031x6v5afa4Lt5JYyD24mt7tPtcEeaWK2zxk3/DT7XBUGVbbyRea2pPtsE4e4iKRqeOx3vrTf9dhs2qZka/EMYN7gcROX57A2vrQsQJI185Lr9vim1datcowCk794v2+Iu0M48Dt5+IAf7/A3F+JcmxuNt9Y+3wNxGti3dyEeHln7fE1TcSpe3sjj4JGt/fYhuJSSQADXM1vM0n2uCqVNQYxw0nljlbfVPPJGkYPJmOsg+gczipvZdny2N2Mma0UlQbap5ZlZmNuWw8n0YntLIQj6vBLK9P0ioEjkcyFGZGAY6b2uvuR8mN27SCpMtpF9WskkVhpNynmI/Yxw2aCZEqoJ4ajO8olimBDKzpyvf0eIGFyNbGqZI56aWN83yiTUpWxeLcG17/IPkxnfLWuNOuVeNSwtDwnXSNwbqdvDHms3XonWmXmWeUGXRPqm4s6uYwhD6bixYXCnffHq1bxHn3I5N82yqeZ3koYWdiSxdpO2ee54ONzHKM3KFkzPICQwy6mRhfm7/ZYvjknlFqfMcgd1EWW0urltJIduR+9YeOZ5T6FXMMjBX/RdLv6ZfssS45Hlj9Lw1uSSMQuVU5J83Ft6fvWJ45HliItbkyyoPUqldb2LASkf3WHjkbxXNfkjSDi5bTIwPZAEx+TusPHI3i96oZIuniZZTKpJsdM32W+HjkeUR6oZKH0vllJEbX1Wlsf1eHhkbxQ2Z5Mti2WUqAiwOibf9Xh4ZHli9JmOSldJy2kSw2ISYH+7xZjkeWK0eY5Qqm+VUwFh2uHN9nh45G8V1zDKnBHqXSBVWzHRMLX/J4eGRvFVs0yYIrHLKXSPJISbf8AV4nhkeUXSvyiQM65XS8ri6TC4HP738GL45fZ5RZqzJSWHqdQ9gdprybej2PE8ck3FOv5KGVPUqkPZJUsso1bX2PD32xdVd4qioyNHIOW0bgnYhnN9r/xeGsl3ENV5EAC2V0ekk76n89v4rDWSbi6TZMAY/UmjNhqIMjcuX8XhrI3i9JUZNEy8TKqVWvYDW32WGsjcUeryC+k5bTKSfFnG/5rE1keSJKjIFYRtllKrg2ILsDt+SxdZG4k1XR9rsMtpSOQAduf5rC403FOtZCUu+XU6rbytbC4/NefDxpuLCo6PNGtsvp2bwtIfs8NZJuCwyZJJDqXL4FQEWYOSL+jusNX2u14pcoQhOo6dXkFY7/5OGjbkulFZTy11XHl6g0pfQHUbE7avNtqv8OOuE+2MrtXosJVqawqkrhKd1PDViwuyDbSb/JhmY102XGoWsRtNeY1bcstTyO3iCMc701Ly6QrIjai0p9Hb+xxxrfIjRTCxCzsG8bS/Z4LtISZVXSk5BHiJdv0MWG1EjmAACzkfBNt+hi7P/iGjmC3KVTA+AE37mCpjEykWSo0+a09h+hjKPaJwuwqvkm/cxdUeZagMAVqrea0xv8Ao4ujaQs1mJFTt4Wn/dw0bQBM0ZGmqA8wE/7uC7TaYOSVqQfPaff9HBNqnj3JtU/Gs4/w4G1gai9yKoAeYT7/AKOJYbeAqCfJqQPNaf8Adw1TbzCoYC61QA5A8f8Adw1TaPXATTpqRdr7rNv+jhC161TttUj0Wn/dxU283HIB01Q9Gmf93E1V2hhPuGWq25dmfl/Uw1V2r3zMRoqj5+zPt+hhynk8qSm5C1TA+ib9zFm12gpMGAKVDHwGmb7PGU2gCW1itQR4jRNv+rxeS14xylrFKnfkNEu/6rDVNvBZL7xVF/5En2OHK7QYST2o5Pjja3zwYyCNThfLSO/hew/ycUI1lUMslkMq6oqlhJHwjKTqVQrDsAX2APLz41Md9M2ydkZukFMX1CilPwxVYtjUwyTyx+gh0gpS29GwA5WSr3w8Mjyx+kHpPRhm1UYUnxtVD6MP48k8o8OkMDi/VnjBHZ7NUfoxLhksyn0s2f0zJ9yPvy7NX+7h4VblHR5BnKVkC07QVUcka39glCFeQ7TAXOOGf47Odu2OW44fpJE0uaZkZnQBMwkUaivii+d182PVjdSPPlOWPWUrPo4s6EaQFOuLl+dPLG5kz41EWXqSiyyxaLkg6oTbb8Zhck1V0oo+GscjwBfKU2gv4e+csNw1RIqJViKh6bS3naAkfrMTyXSUoI7IrSwcO55GAnf0cTDyNLNly3A1QadtyYOXo7zDyNVYUCLKdJptO5sTT3H6zDyNV4UCljqame43JMFwfP7Jh5GqsuXoNQRqaRCdz3Fx+sxNmkjLYyvZlpJFsRYmC6jw++bYbTSI8vjIDIKV9rWIgJ/t4eS6StGitqvSub3IJpx/jw8jSRQqH1nqZuOXrey/p4bHjRxMpPrW3gL09r/18NppXqaaDdqUAmwF6fb9PF2aEOXqYgZJKUAL2QBTi/yPh5LoLqKsou8AAUgKGhP+Zh5Q0ulEhEKSvSqFGwHB+X2XDyTShoywUsYDuQNojv8ABxcPKLp45epYACmXfY6Y+Xp77DyhqrGgbSC3BIvse7sP12G4aeNC2oFjG5G12VGv8fGxdw1UNl12baFtxuVTb9dieUNVf1PYHlE7Efgrt+uw8oar3qaQAVZCfNpT7bDyhpHqYdQ0W89gig/32Ls1R0oipGkx6jzWygC3wz4zcoapTOxPR0qLE5D1MjX0HSVUKLgaXbYkjxxrHVZvDniSVJUBVY2KgHw8MdIy6foPkFfm/XGpI4I41QKWqEYxE6gSu3jYY5fkzmPDphjt0v8AATM0kBWTJD+SlX9jY5fyYunhWmOj+bAjiy5Mg8bdYb9r4x54/S+OX2v6iZoqlFlyklR2StGzW+HU+Nbx+jV+1RkmbFnMk2T2AOkrQHn6e1iW4njfsZuj2cNb13kwN/8AYDy/rYnnPpZhfv8A8Ubo1m9gBV5Nq57Zebf2sPPFPC/f/iD0bzlr+uskDHn6wO/6WHnieN+3l6NZxsTU5Jq9GXnf9LD+TH6PC/aV6N5yRY1OSb+PUD9eL/JieN+1G6N52CStRkRHpoCPpw88Twv2g9HM9CqVmyMnxvRH68TzxPGp/g1nhI9cZGbb/cJ+vDyxPGvfwazljcVOS3/mB+vDzxXxv29/BjPA1+s5Hp84y/f5L4tzxTxv2n+DWeE3E+Qk38aE7fPieeJ437Dk6NdIlUGOXIZGvuGo7WxfLG9nhfsuej/Se8gKdHmsRp9bDtDz4vlieOST0f6UgqBH0dINr+t7WwmWCeOSY+j/AEnIu69HUJ8OrarHDzxXxyWbo30j12MnR7T4nqp/Zh54nhkIvRvPtmefo+h5dmhO/wA+J54r4VL9HOkAtom6PWA3PUm2Py4eeJ4ZBjo50iuFdujwS3Pqzb4eWKeOSrdH+kwZ9CdH2A2BFORt8uHnieOQqdHc/veZ+j4HmWlc3+fDzxPHJY9G88IBMmQH09VkFv0sTzxPHJY9Hs9sdLZDf8TMP8WHlivjkj1H6SopCR5GwHmedP8AFh5Yp45Es9oc0p8sSbNost4aTxewvK5FzpN9RtaxONY2XpnKX2wGodKsAtMfddXTb9fjpKz4gdQup4ZgcjzQJsPz+Ls8Qo8uOnUDAyt+FAm367DaaMR0WlLBqZ/hpxsfz+JtZHjl7qwMRiItsppxz/P4bWxtdHIpY61wXp0PCNyKVQ3MbX4rY558yNfj2TzFHHSPPkp1lL9YichA9zeM/gKxxrH4xLvdDgjrARYVZFreTUW/sYqCxQ1aSArHWEA7gioI/s4m4uhIoKy5KpWkkcvXP7uG4aXEVUdLBaxTezD1xt+jhuGl1hqrbCtvfbs1FiP6uG4aqVjqzuwrNvACpt/ZxNwS0dWr7LWg+YLUkf2cUTwqvWTatB5cqn93D/4PCKtB7ArQ1rn7p3+bDZz6eENZdiBWec9mp383hinK0cVaQTet33JHWRgI0VjW0itt4kdZ3w2aSI6qx0rWhvPep+rEOXgtYVNhWEH23ro/PbDZJUCGsY29eWJvb11b+zhs1UiKrvzrLDmb1XP+phs0q0VWOS1h9Prn7PDaKiGqJUWqxYcz1g/5WKPcKqNr9Zufx+/6nE2SV7gVPK1Te+20w/ycNrpdYaki+moHwiY/5GCKvHKRp0zDUbhTxd/1GGxU08mkhVlXbkBJ9hgLCKVRfRMLeiT7DFNPBJih7MgPO+mT7DE2unhTzMNo5FHjYPv+ow2mhYqcgktxh2b9lHO/h94w3tdOY6dq0XUUkDAsJGDNqH4IHNV/Zjp+NjLis/on0cq8/r1ihvHTqbzTgbIPR6Ti/k/JMYYY3Kvt2WUNPl1HFS0kQjijAAHP4SfTjw223l6McdGgo81gRgoU9MsgIXs3GnbxxZlpLNqwU3DYMzlgByOFy2sxH4S+YLfwGJtdICabqSSD58RFvAC1vScNNJC2+S/wYM16wOC6jwAAs+C6eIuNyMEsR5J5bDxviaiPFfiGGhYDs72sMXaxFtRG9vjwV4oCfN8eJwJW99vN4nF0liLeJ5YaIgKT4bYaVPwDEppBU3t4efF4EjlY7/DgPDtDzeGAkrcbAbYnCVAFn25gXwVBFzax+XDhXlBHNgcNCdOr02w0IO/j/wAsNDn+nlm6Nzat+9hJt+MXHT8Xyc/ydOVqFUl0iEttVtkbf4bU+O8ctAinkLMeFIu3Kz/+nxRKU8l7CGVPEdh//TYDwgN2BhcEb3CMf/42ILLGxYK0Tj+gf/TYUaeSU0c1Yw6s4IjNywI8R7wuOeV4jWP0QzXKa+fpLnE8OXTVNPK8YUoIjZ1TfaTw35jzYsynjIZY3doCZHmDHbI6kADmYKQX2ti+UTxoi5LmN7NkE2oDnw6O37MPLE8auMmzFWt6gTEjx4VJc4eU/S+NXGS5gp/8CmA27XCoycPKHjksmTV/keocwtuCYqQXxPOHjXnyauG5yKZgDzWGkY/txfOJ41Q5XWg2bo/W3HmpaUj9uHliayW9TKwkE5BXavA9Tpb+jxw3P/1NX/8ARByysQlW6P1rKNhakpPrwmUNX/8ARBy+qBs/R+uba9hR0u3z4u59mqgUFWkVj0fzGxF9qOlw3Ps1f/0DFNVkC3RzM9vPQ0wthufZz/8AoJ6nV2ldXR+sA8AKWluPnxNxeVRl9ZaxyCvJIvbqVN9eLLE1l/8AoIcurN1OQVuw5dSprbf0sNz7TV/apy2rRBbIa+1uQoqcn+1hufa3f091CoYkDI8wBA59QiP7Hxdz7TVRHQ1d9S5HmPLb/R8e/wCsxNz7NV56eoSTS+SZjcb29TU+0xePs5np4U9S2lfUXMvh9Tk+0w3Ps1XurzQm75PmYUHyhlyn/MxOPs5+ghO4QFspzO1yFb1M8PzmLqfZu/QS1kQBZ8tzHUDsfUw7H85hqfZu/QkFR1kkw5ZmUqg7kZdyP5zDg5HENQCHbKcyIPgKAD/Nw3DVWSnqCpvlGZENyAy//wCXDcNVcUlalwcqzErzA6iPtcTcNUhmvRyu6QVVBTinnpQpfWZqYRBU2udma5uMaxzmMLjbX0PIsopcjy1KGiUiNNySblmPMnHmyz8ruu2M00B5O4xlpAUHlvglidIHZ32wI96b7YK8WIvve+AhVt8PpwZWFyB2gThtp4C59OGx4W5Yg8QLb7X54CLbm2AkqNhtbAR5wfmwEg7m2BpIFt7b4CG3vqbATbwOKPAcztfzYDxve9+Xz4Kre2/j8GA92mY37PoxBPIHnvgJ8+CItc7XwHmG9h8vnwV5tthfz4lED07fBhtU8tj4+nFiKuCBbn8eJaMPpqHk6O1SwwmWQFCsYF9TB1sLDG/x3/pjObjmpqTMGF/UvMXY7k9Wv/anx3mUc7KE2X17Ht5NmDN+F1RPtsXc+01XjQ5lrucozIqot9yrt+uw3Ps1VWy6v5+omY+j1ou367E3Pskq4oK5JBI2TZgy28KRb/32HlFsp3LstrJqwh6CqiThk3mpuGAbjbaU74xllNNSXb//2Q==
p180
sg23
Vdoor
p181
sg25
g26
((I2015
I4
I22
I12
I2
I20
I2
I112
I1
tp182
(dp183
tp184
Rp185
sg31
(lp186
S'Twine.image'
p187
asg33
g185
sbsa(dp188
g14
I00
sg15
(lp189
F402.0
aF10.0
asg17
(itiddlywiki
Tiddler
p190
(dp191
g21
V.credit {\u000afont-size: 12px;\u000a}\u000a\u000a.content {\u000amargin: 0;\u000apadding: 0;\u000afont-size: 30px;\u000aline-height: 32px;\u000a}
p192
sg23
VCSS Styles
p193
sg25
g26
((I2015
I4
I22
I12
I43
I54
I2
I112
I1
tp194
(dp195
tp196
Rp197
sg31
(lp198
Vstylesheet
p199
asg33
g26
((I2015
I4
I22
I12
I36
I33
I2
I112
I1
tp200
(dp201
tp202
Rp203
sbsasS'scale'
p204
I1
sS'snapping'
p205
I00
ss.